(lp0
F0.0
aF0.0
aF0.0
aF0.0
aF0.0
aF0.0
aF0.0
aF0.0
aF0.0
aF0.0
aF0.0
aF0.0
aF0.0
aF0.0
aF0.0
aF0.0
aF0.0
aF0.0
aF0.0
aF0.0
aF0.0
aF0.0
aF0.0
aF0.0
aF0.0
aF0.0
aF0.0
aF0.0
aF0.0
aF0.0
aF0.0
aF0.0
aF0.0
aF0.0
aF0.0
aF0.0
aF0.0
aF0.0
aF0.0
aF0.0
aF0.0
aF0.0
aF0.0
aF0.0
aF0.0
aF0.0
aF0.0
aF0.0
aF0.0
aF0.0
aF0.0
aF0.0
aF0.0
aF0.0
aF0.0
aF0.0
aF0.0
aF0.0
aF0.0
aF0.0
aF0.0
aF0.0
aF0.0
aF0.0
aF0.0
aF0.0
aF0.0
aF0.0
aF0.0
aF0.0
aF0.0
aF0.0
aF0.0
aF0.0
aF0.0
aF0.0
aF0.0
aF0.0
aF0.0
aF0.0
aF0.0
aF0.0
aF0.0
aF0.0
aF0.0
aF0.0
aF0.0
aF0.0
aF0.0
aF0.0
aF0.0
aF0.0
aF0.0
aF0.0
aF0.0
aF0.0
aF0.0
aF0.0
aF0.0
aF0.0
aF0.0
aF0.0
aF0.0
aF0.0
aF0.0
aF0.0
aF0.0
aF0.0
aF0.0
aF0.0
aF0.0
aF0.0
aF0.0
aF0.0
aF0.0
aF0.0
aF0.0
aF0.0
aF0.0
aF0.0
aF0.0
aF0.0
aF0.0
aF0.0
aF0.0
aF0.0
aF0.0
aF0.0
aF0.0
aF0.0
aF0.0
aF0.0
aF0.0
aF0.0
aF0.0
aF0.0
aF0.0
aF0.0
aF0.0
aF0.0
aF0.0
aF0.0
aF0.0
aF0.0
aF0.0
aF0.0
aF0.0
aF0.0
aF0.0
aF0.0
aF0.0
aF0.0
aF0.0
aF0.0
aF0.0
aF0.0
aF0.0
aF0.0
aF0.0
aF0.0
aF0.0
aF0.0
aF0.0
aF0.0
aF0.0
aF0.0
aF0.0
aF0.0
aF0.0
aF0.0
aF0.0
aF0.0
aF0.0
aF0.0
aF0.0
aF0.0
aF0.0
aF0.0
aF0.0
aF0.0
aF0.0
aF0.0
aF0.0
aF0.0
aF0.0
aF0.0
aF0.0
aF0.0
aF0.0
aF0.0
aF0.0
aF0.0
aF0.0
aF0.0
aF0.0
aF0.0
aF0.0
aF0.0
aF0.0
aF0.0
aF0.0
aF0.0
aF0.0
aF0.0
aF0.0
aF0.0
aF0.0
aF0.0
aF0.0
aF0.0
aF0.0
aF0.0
aF0.0
aF0.0
aF0.0
aF0.0
aF0.0
aF0.0
aF0.0
aF0.0
aF0.0
aF0.0
aF0.0
aF0.0
aF0.0
aF0.0
aF0.0
aF0.0
aF0.0
aF0.0
aF0.0
aF0.0
aF0.0
aF0.0
aF0.0
aF0.0
aF0.0
aF0.0
aF0.0
aF0.0
aF0.0
aF0.0
aF0.0
aF0.0
aF0.0
aF0.0
aF0.0
aF0.0
aF0.0
aF0.0
aF0.0
aF0.0
aF0.0
aF0.0
aF0.0
aF0.0
aF0.0
aF0.0
aF4.8400700000000004e-10
aF0.0
aF2.7610099999999998e-32
aF1.0237e-11
aF1.8873400000000001e-10
aF3.8609200000000002e-10
aF4.5952900000000001e-10
aF4.7886599999999999e-10
aF4.2770099999999999e-10
aF2.87019e-10
aF3.38028e-10
aF2.3634699999999999e-10
aF5.6377400000000002e-11
aF1.09731e-10
aF1.46146e-10
aF7.9881800000000005e-11
aF2.5577399999999999e-11
aF3.85706e-11
aF1.64379e-11
aF7.2923199999999998e-14
aF1.1202400000000001e-12
aF3.6102300000000001e-12
aF6.1767300000000001e-12
aF2.0436999999999999e-12
aF3.0530200000000002e-13
aF5.9445599999999999e-13
aF1.5171300000000001e-13
aF2.7708e-15
aF1.5227299999999999e-14
aF3.3893600000000003e-14
aF6.6100200000000001e-15
aF4.3111099999999999e-16
aF1.11955e-15
aF1.4409400000000001e-16
aF-1.0237e-11
aF-7.2923199999999998e-14
aF-2.7708e-15
aF-4.3111099999999999e-16
aF-1.4409400000000001e-16
aF-1.11955e-15
aF-1.5227299999999999e-14
aF-6.6100200000000001e-15
aF-3.3893600000000003e-14
aF-1.1202400000000001e-12
aF-3.0530200000000002e-13
aF-1.5171300000000001e-13
aF-5.9445599999999999e-13
aF-3.6102300000000001e-12
aF-2.0436999999999999e-12
aF-6.1767300000000001e-12
aF-1.8873400000000001e-10
aF-5.6377400000000002e-11
aF-2.5577399999999999e-11
aF-1.64379e-11
aF-3.85706e-11
aF-1.09731e-10
aF-7.9881800000000005e-11
aF-1.46146e-10
aF-3.8609200000000002e-10
aF-2.87019e-10
aF-2.3634699999999999e-10
aF-3.38028e-10
aF-4.5952900000000001e-10
aF-4.2770099999999999e-10
aF-4.7886599999999999e-10
aF1.9842200000000001e-26
aF0.0
aF-0.0
aF1.40758e-28
aF5.8802599999999999e-27
aF1.4697900000000001e-26
aF1.8437099999999999e-26
aF1.00458e-26
aF1.25675e-27
aF2.943e-27
aF4.5668400000000004e-28
aF2.2353100000000001e-31
aF8.0258100000000001e-30
aF3.6653099999999999e-29
aF1.4695499999999999e-30
aF2.8694500000000001e-33
aF2.8025499999999997e-32
aF2.3648000000000001e-34
aF-1.40758e-28
aF-2.2353100000000001e-31
aF-2.8694500000000001e-33
aF-2.3648000000000001e-34
aF-2.8025499999999997e-32
aF-8.0258100000000001e-30
aF-1.4695499999999999e-30
aF-3.6653099999999999e-29
aF-5.8802599999999999e-27
aF-1.25675e-27
aF-4.5668400000000004e-28
aF-2.943e-27
aF-1.4697900000000001e-26
aF-1.00458e-26
aF-1.8437099999999999e-26
aF0.0
aF0.0
aF0.0
aF0.0
aF0.0
aF0.0
aF0.0
aF0.0
aF0.0
aF0.0
aF0.0
aF0.0
aF0.0
aF0.0
aF0.0
aF0.0
aF0.0
aF0.0
aF0.0
aF0.0
aF0.0
aF0.0
aF0.0
aF0.0
aF0.0
aF0.0
aF0.0
aF0.0
aF0.0
aF0.0
aF0.0
aF0.0
aF0.0
aF0.0
aF0.0
aF0.0
aF0.0
aF0.0
aF0.0
aF0.0
aF0.0
aF0.0
aF0.0
aF0.0
aF0.0
aF0.0
aF0.0
aF0.0
aF0.0
aF0.0
aF0.0
aF0.0
aF0.0
aF0.0
aF0.0
aF0.0
aF0.0
aF0.0
aF0.0
aF0.0
aF0.0
aF0.0
aF0.0
aF0.0
aF0.0
aF0.0
aF0.0
aF0.0
aF0.0
aF0.0
aF0.0
aF0.0
aF0.0
aF0.0
aF0.0
aF0.0
aF0.0
aF0.0
aF0.0
aF0.0
aF0.0
aF0.0
aF0.0
aF0.0
aF0.0
aF0.0
aF0.0
aF0.0
aF0.0
aF0.0
aF0.0
aF0.0
aF2.7527200000000001e-31
aF0.0
aF0.0
aF1.58778e-33
aF-1.58778e-33
aF0.0
aF0.0
aF0.0
aF0.0
aF0.0
aF5.1433300000000001e-33
aF0.0
aF1.3293400000000001e-28
aF0.0
aF0.0
aF7.3482100000000004e-30
aF0.0
aF1.8013700000000002e-27
aF0.0
aF9.1229199999999992e-16
aF0.0
aF4.4668800000000002e-39
aF1.2383899999999999e-17
aF3.1888800000000001e-16
aF7.0705700000000004e-16
aF8.31349e-17
aF4.7509500000000003e-20
aF1.03599e-18
aF1.15554e-21
aF-1.2383899999999999e-17
aF-4.7509500000000003e-20
aF-1.15554e-21
aF-1.03599e-18
aF-3.1888800000000001e-16
aF-8.31349e-17
aF-7.0705700000000004e-16
aF4.1505700000000001e-20
aF0.0
aF1.2191299999999999e-43
aF4.1993099999999999e-22
aF1.34731e-20
aF1.0790000000000001e-24
aF-4.1993099999999999e-22
aF-1.0790000000000001e-24
aF-1.34731e-20
aF6.4169999999999996e-23
aF0.0
aF-0.0
aF5.4837099999999997e-25
aF-5.4837099999999997e-25
aF1.4544299999999999e-24
aF0.0
aF-0.0
aF1.8207300000000001e-25
aF0.0
aF1.01699e-23
aF0.0
aF1.9128200000000002e-21
aF0.0
aF-2.8025999999999999e-45
aF3.6477300000000001e-22
aF0.0
aF9.2084499999999996e-21
aF0.0
aF9.1600700000000003e-18
aF0.0
aF2.2040999999999999e-41
aF1.08077e-19
aF-1.08077e-19
aF6.9068300000000003e-19
aF0.0
aF1.0327599999999999e-42
aF1.7405099999999999e-19
aF0.0
aF2.5753700000000002e-18
aF0.0
aF9.9724099999999998e-17
aF0.0
aF-2.9387300000000001e-40
aF3.0849999999999998e-17
aF0.0
aF3.07117e-16
aF0.0
aF1.5658399999999999e-12
aF0.0
aF2.5037099999999998e-35
aF2.7129400000000001e-14
aF5.8154999999999998e-13
aF1.45701e-16
aF-2.7129400000000001e-14
aF-1.45701e-16
aF-5.8154999999999998e-13
aF4.8704199999999998e-14
aF0.0
aF5.7928399999999997e-37
aF7.5126100000000002e-16
aF-7.5126100000000002e-16
aF7.1470199999999999e-15
aF0.0
aF1.29775e-37
aF2.5947499999999998e-15
aF0.0
aF1.89275e-14
aF0.0
aF2.9252199999999999e-13
aF0.0
aF4.7395899999999999e-37
aF1.20922e-13
aF0.0
aF6.8483400000000001e-13
aF0.0
aF3.29649e-11
aF0.0
aF1.84889e-34
aF6.3446300000000002e-13
aF-6.3446300000000002e-13
aF7.5423099999999996e-12
aF0.0
aF-2.3111200000000001e-35
aF3.4739100000000001e-12
aF0.0
aF1.5925400000000001e-11
aF0.0
aF1.31694e-10
aF0.0
aF1.72563e-33
aF6.6495100000000005e-11
aF0.0
aF2.5462200000000001e-10
aF0.0
aF0.00018979500000000001
aF0.0
aF-6.6174399999999997e-26
aF5.2771400000000001e-06
aF7.6170500000000005e-05
aF0.00015239100000000001
aF0.00018075599999999999
aF0.00011408000000000001
aF2.4562900000000002e-05
aF4.5584699999999997e-05
aF1.1960899999999999e-05
aF7.5956299999999998e-08
aF7.68146e-07
aF2.11282e-06
aF2.5357499999999999e-07
aF5.0603e-09
aF2.0620900000000001e-08
aF1.08412e-09
aF-5.2771400000000001e-06
aF-7.5956299999999998e-08
aF-5.0603e-09
aF-1.08412e-09
aF-2.0620900000000001e-08
aF-7.68146e-07
aF-2.5357499999999999e-07
aF-2.11282e-06
aF-7.6170500000000005e-05
aF-2.4562900000000002e-05
aF-1.1960899999999999e-05
aF-4.5584699999999997e-05
aF-0.00015239100000000001
aF-0.00011408000000000001
aF-0.00018075599999999999
aF1.43164e-06
aF0.0
aF-9.6935200000000004e-29
aF3.9418999999999997e-08
aF5.9219799999999997e-07
aF1.15972e-06
aF1.9152599999999999e-07
aF4.31053e-10
aF5.17172e-09
aF2.25967e-11
aF-3.9418999999999997e-08
aF-4.31053e-10
aF-2.25967e-11
aF-5.17172e-09
aF-5.9219799999999997e-07
aF-1.9152599999999999e-07
aF-1.15972e-06
aF4.2647800000000002e-08
aF0.0
aF6.5633199999999996e-30
aF1.05413e-09
aF1.7250799999999999e-08
aF9.5027899999999993e-12
aF-1.05413e-09
aF-9.5027899999999993e-12
aF-1.7250799999999999e-08
aF5.2053599999999999e-09
aF0.0
aF-1.5777199999999999e-31
aF1.1968299999999999e-10
aF-1.1968299999999999e-10
aF1.64589e-09
aF0.0
aF7.88861e-33
aF8.9961099999999997e-10
aF0.0
aF2.9486500000000002e-09
aF0.0
aF1.53819e-08
aF0.0
aF1.13596e-30
aF9.0099000000000005e-09
aF0.0
aF2.5778399999999999e-08
aF0.0
aF2.7487700000000001e-07
aF0.0
aF4.0389700000000002e-30
aF7.2177199999999998e-09
aF-7.2177199999999998e-09
aF1.1137e-07
aF0.0
aF2.62533e-29
aF6.93371e-08
aF0.0
aF1.75968e-07
aF0.0
aF6.43279e-07
aF0.0
aF-8.0779399999999995e-29
aF4.22773e-07
aF0.0
aF9.6454899999999991e-07
aF0.0
aF2.2387300000000002e-05
aF0.0
aF-1.24077e-26
aF6.4669300000000001e-07
aF9.2808499999999994e-06
aF8.2519700000000004e-09
aF-6.4669300000000001e-07
aF-8.2519700000000004e-09
aF-9.2808499999999994e-06
aF6.1646999999999996e-06
aF0.0
aF-5.1698800000000001e-28
aF1.7537599999999999e-07
aF-1.7537599999999999e-07
aF3.0383300000000002e-06
aF0.0
aF-1.29247e-28
aF2.0956599999999999e-06
aF0.0
aF4.3475700000000001e-06
aF0.0
aF1.19869e-05
aF0.0
aF3.6189200000000002e-27
aF8.6333000000000008e-06
aF0.0
aF1.64483e-05
aF0.0
aF6.9788200000000004e-05
aF0.0
aF-8.2718100000000003e-27
aF2.0041999999999998e-06
aF-2.0041999999999998e-06
aF4.0246600000000002e-05
aF0.0
aF-2.06795e-26
aF3.01326e-05
aF0.0
aF5.3190299999999998e-05
aF0.0
aF0.00011695499999999999
aF0.0
aF-3.3087199999999998e-26
aF9.0653899999999996e-05
aF0.0
aF0.000149467
aF0.0
aF0.0036588900000000001
aF0.0
aF0.0
aF5.4747399999999997e-05
aF0.0009884309999999999
aF0.0025696400000000002
aF0.000267497
aF9.59911e-07
aF8.4373600000000005e-06
aF7.8743500000000006e-08
aF-5.4747399999999997e-05
aF-9.59911e-07
aF-7.8743500000000006e-08
aF-8.4373600000000005e-06
aF-0.0009884309999999999
aF-0.000267497
aF-0.0025696400000000002
aF0.00099168200000000002
aF0.0
aF-9.2644199999999997e-25
aF2.3056499999999999e-05
aF0.00035842099999999999
aF3.6575400000000001e-07
aF-2.3056499999999999e-05
aF-3.6575400000000001e-07
aF-0.00035842099999999999
aF0.000457317
aF0.0
aF-2.6469799999999998e-25
aF1.1896099999999999e-05
aF-1.1896099999999999e-05
aF0.000298817
aF0.0
aF-1.65436e-25
aF0.000238862
aF0.0
aF0.00037069499999999999
aF0.0
aF0.00068167100000000001
aF0.0
aF-2.6469799999999998e-25
aF0.00055975700000000003
aF0.0
aF0.000824071
aF0.0
aF0.0019690599999999999
aF0.0
aF1.58819e-24
aF3.8423000000000001e-05
aF-3.8423000000000001e-05
aF0.0014111600000000001
aF0.0
aF-1.3234900000000001e-24
aF0.0011853199999999999
aF0.0
aF0.0016696599999999999
aF0.0
aF0.0027019499999999998
aF0.0
aF0.0
aF0.00230934
aF0.0
aF0.0031461900000000001
aF0.0
aF0.0122246
aF0.0
aF0.0
aF6.4257000000000005e-05
aF0.0013284900000000001
aF1.33709e-06
aF-6.4257000000000005e-05
aF-1.33709e-06
aF-0.0013284900000000001
aF0.00657751
aF0.0
aF-4.23516e-24
aF6.5720099999999994e-05
aF-6.5720099999999994e-05
aF0.0049118299999999998
aF0.0
aF1.05879e-24
aF0.0042386200000000002
aF0.0
aF0.0056762999999999996
aF0.0
aF0.0088682399999999995
aF0.0
aF-4.23516e-24
aF0.00761242
aF0.0
aF0.0103412
aF0.0
aF0.0291141
aF0.0
aF4.23516e-24
aF4.6724699999999997e-05
aF-4.6724699999999997e-05
aF0.017741400000000001
aF0.0
aF-4.23516e-24
aF0.0145142
aF0.0
aF0.021901400000000001
aF0.0
aF0.074405100000000002
aF0.0
aF8.4703299999999994e-24
aF0.039374100000000002
aF0.0
aF0.052281800000000003
aF0.0
aF-9.0391500000000003e-07
aF0.0
aF3.2283300000000001e-06
aF2.1589800000000001e-05
aF2.58353e-05
aF2.2710499999999999e-05
aF1.1230600000000001e-05
aF2.2200700000000002e-06
aF-9.0391500000000003e-07
aF6.7701300000000002e-06
aF1.8347099999999999e-05
aF1.51574e-05
aF2.08584e-05
aF2.5857400000000001e-05
aF2.4954299999999999e-05
aF2.40646e-05
aF2.55526e-05
aF2.6024799999999999e-05
aF2.6030999999999999e-05
aF2.59899e-05
aF2.4091600000000002e-05
aF2.5066200000000001e-05
aF2.5487399999999999e-05
aF2.5709599999999999e-05
aF2.5323699999999999e-05
aF2.4599500000000001e-05
aF2.4883199999999999e-05
aF2.4400999999999999e-05
aF2.2940400000000001e-05
aF2.3539800000000001e-05
aF2.3876700000000001e-05
aF2.3306700000000002e-05
aF2.2291000000000001e-05
aF2.26879e-05
aF2.2018199999999999e-05
aF1.40565e-05
aF1.8252799999999999e-05
aF2.00286e-05
aF2.0835900000000002e-05
aF2.1296300000000001e-05
aF2.05214e-05
aF1.9167599999999999e-05
aF1.96931e-05
aF1.8811e-05
aF1.62615e-05
aF1.7283999999999999e-05
aF1.7875100000000001e-05
aF1.6885399999999999e-05
aF1.5185600000000001e-05
aF1.5841999999999998e-05
aF1.4745399999999999e-05
aF9.0241599999999997e-06
aF1.1641700000000001e-05
aF1.2875e-05
aF1.35959e-05
aF1.2394200000000001e-05
aF1.0357700000000001e-05
aF1.1141100000000001e-05
aF9.8377500000000008e-06
aF6.2145800000000001e-06
aF7.6425300000000005e-06
aF8.48535e-06
aF7.0855000000000002e-06
aF4.74238e-06
aF5.6400799999999999e-06
aF4.1512799999999998e-06
aF-2.3111800000000001e-05
aF-9.9694499999999999e-06
aF-3.1846899999999999e-06
aF8.6217900000000006e-08
aF1.67522e-06
aF2.6216500000000001e-06
aF1.0541199999999999e-06
aF-1.5350900000000001e-06
aF-5.4796799999999995e-07
aF-2.1808599999999999e-06
aF-6.5503599999999997e-06
aF-4.8580900000000003e-06
aF-3.8403399999999997e-06
aF-5.5217500000000001e-06
aF-8.2561000000000005e-06
aF-7.2199600000000001e-06
aF-8.9293600000000002e-06
aF-1.6766299999999999e-05
aF-1.3393299999999999e-05
aF-1.16841e-05
aF-1.06439e-05
aF-1.2357100000000001e-05
aF-1.5089800000000001e-05
aF-1.40619e-05
aF-1.5751199999999999e-05
aF-2.0027300000000001e-05
aF-1.8414799999999999e-05
aF-1.74172e-05
aF-1.9052e-05
aF-2.1595700000000001e-05
aF-2.0647599999999999e-05
aF-2.2195600000000001e-05
aF-3.2412900000000003e-05
aF-2.8499900000000001e-05
aF-2.5955199999999998e-05
aF-2.4567500000000002e-05
aF-2.3688100000000001e-05
aF-2.51171e-05
aF-2.7268100000000001e-05
aF-2.64752e-05
aF-2.77561e-05
aF-3.0696299999999999e-05
aF-2.9645299999999999e-05
aF-2.8953900000000001e-05
aF-3.0062699999999999e-05
aF-3.1634799999999997e-05
aF-3.1070800000000001e-05
aF-3.1948500000000001e-05
aF-2.9385400000000002e-05
aF-3.29063e-05
aF-3.2916000000000001e-05
aF-3.2620599999999997e-05
aF-3.2918900000000001e-05
aF-3.1953499999999998e-05
aF-3.2517900000000003e-05
aF-3.08695e-05
aF-1.5911499999999998e-05
aF-2.4317200000000002e-05
aF-2.71829e-05
aF-2.05369e-05
aF-4.6659599999999996e-06
aF-1.0453599999999999e-05
aF-3.2140799999999999e-08
aF0.0
aF0.0
aF0.0
aF0.0
aF0.0
aF0.0
aF0.0
aF0.0
aF0.0
aF0.0
aF0.0
aF0.0
aF0.0
aF0.0
aF0.0
aF0.0
aF0.0
aF0.0
aF0.0
aF0.0
aF0.0
aF0.0
aF0.0
aF0.0
aF0.0
aF0.0
aF0.0
aF0.0
aF0.0
aF0.0
aF0.0
aF0.0
aF0.0
aF0.0
aF0.0
aF0.0
aF0.0
aF0.0
aF0.0
aF0.0
aF0.0
aF0.0
aF0.0
aF0.0
aF0.0
aF0.0
aF0.0
aF0.0
aF0.0
aF0.0
aF0.0
aF0.0
aF0.0
aF0.0
aF0.0
aF0.0
aF0.0
aF0.0
aF0.0
aF0.0
aF0.0
aF0.0
aF0.0
aF0.0
aF0.0
aF0.0
aF0.0
aF0.0
aF0.0
aF0.0
aF0.0
aF0.0
aF0.0
aF0.0
aF0.0
aF0.0
aF0.0
aF0.0
aF0.0
aF0.0
aF0.0
aF0.0
aF0.0
aF0.0
aF0.0
aF0.0
aF0.0
aF0.0
aF0.0
aF0.0
aF0.0
aF0.0
aF0.0
aF0.0
aF0.0
aF0.0
aF0.0
aF0.0
aF0.0
aF0.0
aF0.0
aF0.0
aF0.0
aF0.0
aF0.0
aF0.0
aF0.0
aF0.0
aF0.0
aF0.0
aF0.0
aF0.0
aF0.0
aF0.0
aF0.0
aF0.0
aF0.0
aF0.0
aF0.0
aF0.0
aF0.0
aF0.0
aF0.0
aF0.0
aF0.0
aF0.0
aF0.0
aF0.0
aF0.0
aF0.0044441400000000001
aF0.0
aF0.0047432300000000002
aF0.019585700000000001
aF0.0235795
aF0.0215341
aF0.014628499999999999
aF0.0083680999999999998
aF0.018903400000000001
aF0.0235771
aF0.0229555
aF0.023715300000000002
aF0.0219741
aF0.02291
aF0.023290399999999999
aF0.022467000000000001
aF0.0208582
aF0.021436799999999999
aF0.020240600000000001
aF0.013155699999999999
aF0.016621799999999999
aF0.018169999999999999
aF0.018894999999999999
aF0.017411900000000001
aF0.014948899999999999
aF0.015800600000000001
aF0.0140672
aF0.0092081200000000002
aF0.011243
aF0.012214300000000001
aF0.0102411
aF0.0070447900000000004
aF0.0081430500000000006
aF0.0059120199999999996
aF-0.019877599999999999
aF-0.0061204400000000004
aF-0.00032772699999999999
aF0.0022906699999999999
aF0.0035367200000000001
aF0.0010031700000000001
aF-0.0031272000000000001
aF-0.00170393
aF-0.0045990199999999997
aF-0.012696199999999999
aF-0.0093129200000000006
aF-0.0076918899999999998
aF-0.010982
aF-0.016238900000000001
aF-0.0144507
aF-0.0180518
aF-0.032492100000000003
aF-0.026982300000000001
aF-0.023508399999999999
aF-0.021702200000000001
aF-0.025276099999999999
aF-0.030093499999999999
aF-0.028599599999999999
aF-0.031415699999999998
aF-0.030743099999999999
aF-0.033359300000000001
aF-0.033203400000000001
aF-0.032672699999999999
aF-0.021069899999999999
aF-0.027064899999999999
aF-0.012200600000000001
aF0.0016008299999999999
aF0.0
aF0.00090633399999999996
aF0.0071156800000000001
aF0.0086310399999999995
aF0.0078264500000000004
aF0.0052854
aF0.0086093200000000002
aF0.0080417300000000004
aF0.0083910400000000007
aF0.0076145500000000003
aF0.0044615499999999999
aF0.0059145999999999999
aF0.0065481000000000003
aF0.00521807
aF0.0027817800000000002
aF0.00364826
aF0.0018661999999999999
aF-0.0073189700000000002
aF-0.00323719
aF-0.0011215000000000001
aF-9.1956700000000007e-05
aF-0.0021734900000000001
aF-0.0053460000000000001
aF-0.0042997299999999999
aF-0.0063587699999999997
aF-0.010161399999999999
aF-0.0089991700000000008
aF-0.0082062400000000001
aF-0.0096711699999999998
aF-0.00938691
aF-0.010263400000000001
aF-0.00639435
aF0.00060976400000000005
aF0.0
aF0.00032047500000000002
aF0.0028596400000000001
aF0.0034700500000000001
aF0.0031122900000000002
aF0.00323478
aF0.00177546
aF0.00237024
aF0.0010869
aF-0.0029386199999999999
aF-0.0013476600000000001
aF-0.00050141900000000002
aF-0.0021769599999999999
aF-0.0040091500000000004
aF-0.0035763100000000001
aF-0.0036617500000000001
aF0.00017363200000000001
aF0.0
aF0.000128026
aF0.0010178100000000001
aF0.0012274600000000001
aF0.00064253499999999996
aF-0.00105065
aF-0.00047217
aF-0.0014443100000000001
aF2.7134599999999999e-05
aF0.0
aF4.4100100000000002e-05
aF0.00030648399999999999
aF-0.00031870899999999997
aF-8.2239399999999995e-08
aF0.0
aF1.2928199999999999e-05
aF-9.0391500000000003e-07
aF0.0
aF8.8481200000000006e-06
aF0.0
aF8.8300200000000005e-05
aF0.0
aF8.41289e-05
aF5.4037399999999999e-05
aF0.0
aF0.00012858499999999999
aF0.0
aF0.00038213899999999998
aF0.0
aF0.00022067399999999999
aF0.0019041799999999999
aF-0.0019593700000000002
aF0.000273787
aF0.0
aF0.00017368799999999999
aF0.000222341
aF0.0
aF0.00032724099999999998
aF0.0
aF0.000494773
aF0.0
aF0.00026936899999999999
aF0.00043807900000000002
aF0.0
aF0.00055203999999999995
aF0.0
aF0.0010865099999999999
aF0.0
aF0.00056408399999999996
aF0.0048898300000000004
aF0.0059401000000000002
aF0.0030389100000000001
aF-0.0050238499999999998
aF-0.0022825300000000001
aF-0.0068894000000000004
aF0.00084459300000000004
aF0.0
aF0.00043298000000000002
aF0.0038546800000000001
aF-0.0039596800000000001
aF0.00072639899999999997
aF0.0
aF0.00037476300000000002
aF0.00066789200000000001
aF0.0
aF0.00078529399999999997
aF0.0
aF0.00096453499999999998
aF0.0
aF0.000495847
aF0.00090432999999999996
aF0.0
aF0.0010252499999999999
aF0.0
aF0.0013377899999999999
aF0.0
aF0.00071968300000000004
aF0.0059735200000000004
aF-0.0061401700000000003
aF0.00121083
aF0.0
aF0.00063843299999999999
aF0.00114836
aF0.0
aF0.00127396
aF0.0
aF0.00146769
aF0.0
aF0.00080867799999999996
aF0.0014023499999999999
aF0.0
aF0.0015338400000000001
aF0.0
aF0.0028196699999999998
aF0.0
aF0.0021369700000000002
aF0.0124753
aF0.0150481
aF0.0136861
aF0.014037900000000001
aF0.0080634399999999998
aF0.0104712
aF0.0052788799999999997
aF-0.0128539
aF-0.0050925199999999997
aF-0.00133804
aF-0.0090065500000000003
aF-0.018748399999999998
aF-0.016284300000000002
aF-0.017478899999999999
aF0.00217184
aF0.0
aF0.00140464
aF0.0096165
aF0.0116332
aF0.0061117999999999997
aF-0.0099047500000000004
aF-0.0041924900000000001
aF-0.014024999999999999
aF0.0018780400000000001
aF0.0
aF0.00113167
aF0.0083265500000000003
aF-0.0085705599999999996
aF0.0017375100000000001
aF0.0
aF0.0010136399999999999
aF0.0016687099999999999
aF0.0
aF0.0018072800000000001
aF0.0
aF0.00202271
aF0.0
aF0.00126158
aF0.0019498300000000001
aF0.0
aF0.0020967
aF0.0
aF0.0024848000000000001
aF0.0
aF0.0017357
aF0.010995899999999999
aF-0.0113303
aF0.0023257600000000001
aF0.0
aF0.00156219
aF0.0022481799999999998
aF0.0
aF0.0024046200000000001
aF0.0
aF0.0026493200000000001
aF0.0
aF0.00192673
aF0.0025663499999999998
aF0.0
aF0.0027337400000000001
aF0.0
aF0.0035674299999999999
aF0.0
aF0.0032071199999999999
aF0.015773599999999999
aF0.0189877
aF0.0103903
aF-0.016202299999999999
aF-0.0058139400000000001
aF-0.024711400000000001
aF0.00317943
aF0.0
aF0.0026222799999999998
aF0.0140646
aF-0.0144788
aF0.0029962399999999998
aF0.0
aF0.0023681900000000001
aF0.0029071499999999998
aF0.0
aF0.00308698
aF0.0
aF0.0033696799999999999
aF0.0
aF0.0029012399999999998
aF0.00327364
aF0.0
aF0.0034675800000000001
aF0.0
aF0.0039874899999999998
aF0.0
aF0.00390829
aF0.017611399999999999
aF-0.018011699999999999
aF0.0037731900000000001
aF0.0
aF0.00354208
aF0.0036692700000000001
aF0.0
aF0.0038792399999999999
aF0.0
aF0.0042109299999999999
aF0.0
aF0.0043079499999999996
aF0.0040980299999999999
aF0.0
aF0.0043262600000000002
aF0.0
aF0.010640800000000001
aF0.0
aF0.017045500000000002
aF0.040173199999999999
aF0.0520218
aF0.049993900000000001
aF0.034724600000000001
aF0.0533328
aF0.046393200000000002
aF0.049387300000000002
aF0.043290299999999997
aF0.0281917
aF0.034061500000000001
aF0.037089499999999997
aF0.031096100000000002
aF0.022540000000000001
aF0.025342199999999999
aF0.019777200000000002
aF-0.0098691899999999999
aF0.0061791099999999998
aF0.0116378
aF0.0143362
aF0.0089314400000000006
aF8.1815899999999997e-05
aF0.0032958200000000001
aF-0.0039371800000000002
aF-0.11718000000000001
aF-0.039315999999999997
aF-0.020153399999999998
aF-0.072511800000000001
aF-0.136965
aF-0.150009
aF-0.077135300000000004
aF0.0067714100000000003
aF0.0
aF0.00970677
aF0.028926400000000001
aF0.0353563
aF0.032675900000000001
aF0.0326235
aF0.0200743
aF0.02469
aF0.015110800000000001
aF-0.025874899999999999
aF-0.0036763500000000001
aF0.00361239
aF-0.0130732
aF-0.058289899999999999
aF-0.042499299999999997
aF-0.056412200000000003
aF0.0054904899999999998
aF0.0
aF0.0068795499999999999
aF0.0239656
aF0.028974099999999999
aF0.016392400000000001
aF-0.023504500000000001
aF-0.00560613
aF-0.043060899999999999
aF0.0049428400000000004
aF0.0
aF0.00572881
aF0.0217025
aF-0.021742899999999999
aF0.0046878400000000004
aF0.0
aF0.0052161999999999998
aF0.0045646200000000001
aF0.0
aF0.0048138699999999996
aF0.0
aF0.0052100499999999999
aF0.0
aF0.00628278
aF0.0050748499999999997
aF0.0
aF0.0053485399999999997
aF0.0
aF0.0060960299999999997
aF0.0
aF0.0082050500000000002
aF0.026375099999999999
aF-0.024983000000000002
aF0.0057853599999999998
aF0.0
aF0.0075201299999999999
aF0.0056360300000000002
aF0.0
aF0.0059386100000000004
aF0.0
aF0.0064240800000000004
aF0.0
aF0.0089341999999999998
aF0.0062577500000000003
aF0.0
aF0.0065951899999999999
aF0.0
aF0.0084052599999999995
aF0.0
aF0.0131836
aF0.034401099999999997
aF0.042954600000000003
aF0.024083799999999999
aF-0.023639500000000001
aF0.00026937
aF-0.082473400000000002
aF0.0075332300000000001
aF0.0
aF0.0113746
aF0.031608499999999998
aF-0.025682900000000002
aF0.00714024
aF0.0
aF0.0105211
aF0.0069529600000000002
aF0.0
aF0.0073334999999999997
aF0.0
aF0.0079535999999999999
aF0.0
aF0.0122636
aF0.0077397300000000002
aF0.0
aF0.0081752000000000005
aF0.0
aF0.00942285
aF0.0
aF0.015092700000000001
aF0.037272100000000002
aF-0.0187054
aF0.0088930199999999997
aF0.0
aF0.0141289
aF0.0086442299999999993
aF0.0
aF0.0091521899999999993
aF0.0
aF0.0100023
aF0.0
aF0.016067700000000001
aF0.0097057399999999992
aF0.0
aF0.010313299999999999
aF0.0
aF0.020806100000000001
aF0.0
aF0.023489300000000001
aF0.050072499999999999
aF0.073802800000000002
aF0.082588999999999996
aF0.060367999999999998
aF0.034961300000000001
aF0.041883900000000002
aF0.0288647
aF0.0284896
aF0.016044099999999999
aF0.019016000000000002
aF0.016540099999999999
aF-0.0068696499999999997
aF0.070683499999999996
aF-0.376697
aF0.014099199999999999
aF0.0
aF0.020806600000000001
aF0.045766899999999999
aF0.062651899999999996
aF0.032071599999999999
aF0.017038399999999999
aF0.012440700000000001
aF-0.074313400000000002
aF0.0121482
aF0.0
aF0.018974999999999999
aF0.043036100000000001
aF0.0028869199999999999
aF0.0113507
aF0.0
aF0.018017700000000001
aF0.0109858
aF0.0
aF0.0117372
aF0.0
aF0.0130546
aF0.0
aF0.0199083
aF0.012586
aF0.0
aF0.0135572
aF0.0
aF0.0167829
aF0.0
aF0.022427200000000001
aF0.048226199999999997
aF0.02717
aF0.0153226
aF0.0
aF0.021655000000000001
aF0.014685
aF0.0
aF0.016018000000000001
aF0.0
aF0.0185665
aF0.0
aF0.0230718
aF0.0176265
aF0.0
aF0.0196169
aF0.0
aF0.042230400000000001
aF0.0
aF0.0178993
aF0.043052199999999999
aF0.074904299999999993
aF0.027920799999999999
aF0.013501000000000001
aF0.011617499999999999
aF-0.0093602700000000004
aF0.027673799999999998
aF0.0
aF0.022827
aF0.049938499999999997
aF0.0221265
aF0.023717800000000001
aF0.0
aF0.0235018
aF0.022157199999999998
aF0.0
aF0.0255278
aF0.0
aF0.033369099999999999
aF0.0
aF0.0210866
aF0.030230699999999999
aF0.0
aF0.037243699999999998
aF0.0
aF0.087554699999999999
aF0.0
aF0.0073264200000000002
aF0.0210633
aF0.0051022100000000003
aF0.0575243
aF0.0
aF0.013129500000000001
aF0.048675299999999998
aF0.0
aF0.069551199999999994
aF0.0
aF0.15318699999999999
aF0.0
aF0.0021492999999999998
aF0.11153200000000001
aF0.0
aF0.091062699999999996
aF0.0
aF-1.2180700000000001e-06
aF0.0
aF1.0095400000000001e-06
aF1.9782599999999999e-05
aF2.48312e-05
aF2.5246299999999999e-05
aF1.7154199999999999e-05
aF5.8220299999999999e-06
aF2.2999499999999999e-05
aF2.55851e-05
aF2.5741600000000001e-05
aF2.5237900000000001e-05
aF2.2736500000000002e-05
aF2.3887e-05
aF2.43827e-05
aF2.3339000000000001e-05
aF2.13668e-05
aF2.2079e-05
aF2.0601000000000001e-05
aF1.15346e-05
aF1.6013200000000001e-05
aF1.7993900000000001e-05
aF1.89131e-05
aF1.7026700000000001e-05
aF1.38548e-05
aF1.49552e-05
aF1.27138e-05
aF6.4802600000000002e-06
aF9.0700800000000001e-06
aF1.0319199999999999e-05
aF7.7895799999999994e-06
aF3.7858700000000001e-06
aF5.14476e-06
aF2.4064500000000001e-06
aF-2.07224e-05
aF-1.03875e-05
aF-4.68793e-06
aF-1.82403e-06
aF-4.0171600000000002e-07
aF-3.2539599999999998e-06
aF-7.5529500000000003e-06
aF-6.1222200000000001e-06
aF-8.9761099999999993e-06
aF-1.58287e-05
aF-1.3158e-05
aF-1.1783000000000001e-05
aF-1.4508099999999999e-05
aF-1.8362599999999999e-05
aF-1.7115100000000002e-05
aF-1.95666e-05
aF-2.77467e-05
aF-2.4773299999999999e-05
aF-2.2870800000000001e-05
aF-2.1825199999999999e-05
aF-2.3854800000000001e-05
aF-2.6401600000000001e-05
aF-2.5622999999999998e-05
aF-2.71087e-05
aF-2.8539800000000001e-05
aF-2.8795699999999999e-05
aF-2.8317500000000001e-05
aF-2.90341e-05
aF-1.9927100000000001e-05
aF-2.61567e-05
aF-7.7109700000000008e-06
aF0.0
aF0.0
aF0.0
aF0.0
aF0.0
aF0.0
aF0.0
aF0.0
aF0.0
aF0.0
aF0.0
aF0.0
aF0.0
aF0.0
aF0.0
aF0.0
aF0.0
aF0.0
aF0.0
aF0.0
aF0.0
aF0.0
aF0.0
aF0.0
aF0.0
aF0.0
aF0.0
aF0.0
aF0.0
aF0.0
aF0.0
aF0.0
aF0.0
aF0.0
aF0.0
aF0.0
aF0.0
aF0.0
aF0.0
aF0.0
aF0.0
aF0.0
aF0.0
aF0.0
aF0.0
aF0.0
aF0.0
aF0.0
aF0.0
aF0.0
aF0.0
aF0.0
aF0.0
aF0.0
aF0.0
aF0.0
aF0.0
aF0.0
aF0.0
aF0.0
aF0.0
aF0.0
aF0.0
aF0.0
aF0.0
aF0.0049165499999999996
aF0.0
aF0.0013558699999999999
aF0.0140295
aF0.018079000000000001
aF0.018379199999999998
aF0.0143687
aF0.018622699999999999
aF0.0163547
aF0.017302399999999999
aF0.015257
aF0.0081732300000000001
aF0.0112595
aF0.0126912
aF0.0097494699999999997
aF0.0048570999999999996
aF0.0065402200000000002
aF0.0031281799999999999
aF-0.0139942
aF-0.0061416400000000003
aF-0.0023144400000000001
aF-0.00045862099999999999
aF-0.0042099900000000003
aF-0.010079100000000001
aF-0.0081021800000000005
aF-0.0120526
aF-0.020533200000000001
aF-0.017618100000000001
aF-0.015865500000000001
aF-0.019195299999999998
aF-0.021421099999999998
aF-0.021510899999999999
aF-0.016870400000000001
aF0.00177093
aF0.0
aF0.00026465199999999999
aF0.0051590000000000004
aF0.0065507999999999999
aF0.0066169799999999997
aF0.0059727199999999999
aF0.0029632700000000001
aF0.0041434999999999996
aF0.0016570000000000001
aF-0.0052086700000000003
aF-0.0026011799999999998
aF-0.00117091
aF-0.0039692199999999999
aF-0.0070089599999999998
aF-0.0062463800000000002
aF-0.0071566099999999999
aF0.00073137500000000004
aF0.0
aF9.4352999999999996e-05
aF0.0021811199999999999
aF0.0027667500000000001
aF0.0012474599999999999
aF-0.0022036400000000002
aF-0.00112064
aF-0.0029335199999999998
aF0.00026331899999999998
aF0.0
aF3.9561000000000003e-05
aF0.00085911500000000003
aF-0.00086947999999999995
aF6.5897500000000004e-05
aF0.0
aF1.48146e-05
aF9.6264199999999996e-06
aF0.0
aF0.00015579100000000001
aF0.0
aF0.00049427599999999998
aF0.0
aF6.5685099999999999e-05
aF0.00037761400000000002
aF0.0
aF0.00061218399999999999
aF0.0
aF0.0012276399999999999
aF0.0
aF0.00016527999999999999
aF0.0035989400000000001
aF-0.0036345800000000001
aF0.00097492900000000003
aF0.0
aF0.00012708000000000001
aF0.00085217300000000001
aF0.0
aF0.00109998
aF0.0
aF0.00149209
aF0.0
aF0.00021053000000000001
aF0.00135823
aF0.0
aF0.0016295400000000001
aF0.0
aF0.0030895499999999999
aF0.0
aF0.00061796099999999999
aF0.00894293
aF0.0113884
aF0.0051812100000000003
aF-0.0090119599999999994
aF-0.0043084799999999999
aF-0.0124571
aF0.00238317
aF0.0
aF0.00040836600000000001
aF0.0069197399999999997
aF-0.0069825800000000004
aF0.0020669600000000001
aF0.0
aF0.00032977100000000002
aF0.00191662
aF0.0
aF0.0022223400000000002
aF0.0
aF0.0027228299999999999
aF0.0
aF0.00050332000000000003
aF0.0025498500000000002
aF0.0
aF0.0029025700000000001
aF0.0
aF0.0039207900000000004
aF0.0
aF0.00092196400000000005
aF0.0112923
aF-0.0113434
aF0.0034873500000000002
aF0.0
aF0.00075608800000000003
aF0.00328429
aF0.0
aF0.0036993
aF0.0
aF0.0043951399999999996
aF0.0
aF0.0011202499999999999
aF0.00415249
aF0.0
aF0.0046495299999999998
aF0.0
aF0.012272999999999999
aF0.0
aF0.0048795799999999997
aF0.029064099999999999
aF0.042671899999999999
aF0.0455891
aF0.036160900000000003
aF0.015917000000000001
aF0.022206300000000002
aF0.0102063
aF-0.022390500000000001
aF-0.0061416500000000002
aF-0.000404767
aF-0.0130703
aF-0.055122499999999998
aF-0.036003
aF-0.069086400000000006
aF0.0076489699999999997
aF0.0
aF0.0027600099999999998
aF0.020832
aF0.027829099999999999
aF0.012004300000000001
aF-0.019833
aF-0.0073836700000000002
aF-0.033523299999999999
aF0.0061316900000000004
aF0.0
aF0.0019584099999999998
aF0.017203800000000002
aF-0.016905099999999999
aF0.0054923999999999997
aF0.0
aF0.0016337599999999999
aF0.0051971500000000002
aF0.0
aF0.0058034699999999998
aF0.0
aF0.0068457199999999996
aF0.0
aF0.0023333099999999999
aF0.0064785499999999996
aF0.0
aF0.0072351200000000003
aF0.0
aF0.0096071500000000001
aF0.0
aF0.0037583500000000001
aF0.0248565
aF-0.022129900000000001
aF0.0085606699999999994
aF0.0
aF0.0032369899999999999
aF0.0080898199999999993
aF0.0
aF0.0090650399999999999
aF0.0
aF0.010825899999999999
aF0.0
aF0.0043122600000000001
aF0.010192100000000001
aF0.0
aF0.0115164
aF0.0
aF0.023517699999999999
aF0.0
aF0.0066053600000000002
aF0.035509400000000003
aF0.064520300000000003
aF0.017183299999999999
aF-0.0094337199999999996
aF-0.00082359900000000005
aF-0.033160700000000001
aF0.016266200000000001
aF0.0
aF0.0059361700000000002
aF0.032946000000000003
aF-0.018442699999999999
aF0.0140368
aF0.0
aF0.0054328700000000002
aF0.0131079
aF0.0
aF0.0150802
aF0.0
aF0.019236300000000001
aF0.0
aF0.0063457399999999999
aF0.017633300000000001
aF0.0
aF0.021156299999999999
aF0.0
aF0.044712700000000001
aF0.0
aF0.0055472500000000001
aF0.031987599999999998
aF-0.000671362
aF0.030514300000000001
aF0.0
aF0.0065594199999999998
aF0.026521599999999999
aF0.0
aF0.036138900000000002
aF0.0
aF0.088163099999999994
aF0.0
aF0.00253397
aF0.059310000000000002
aF0.0
aF0.15302199999999999
aF0.0
aF5.0863099999999998e-05
aF0.0
aF3.6960799999999998e-07
aF5.66091e-05
aF7.3487999999999998e-05
aF7.7858199999999999e-05
aF7.5494399999999993e-05
aF7.6011899999999996e-05
aF6.6349199999999998e-05
aF7.0262800000000001e-05
aF6.1783099999999995e-05
aF3.0929800000000003e-05
aF4.4647400000000002e-05
aF5.0878499999999997e-05
aF3.7976399999999998e-05
aF1.59818e-05
aF2.35749e-05
aF8.2221500000000006e-06
aF-5.6820400000000002e-05
aF-3.0470100000000002e-05
aF-1.5315199999999999e-05
aF-7.5012700000000001e-06
aF-2.2996499999999999e-05
aF-4.4496799999999997e-05
aF-3.7661199999999998e-05
aF-5.0905900000000003e-05
aF-7.4337899999999999e-05
aF-6.6914600000000005e-05
aF-6.2176300000000003e-05
aF-7.0982799999999994e-05
aF-7.8869999999999995e-05
aF-7.6961300000000005e-05
aF-7.6417799999999999e-05
aF0.0
aF0.0
aF0.0
aF0.0
aF0.0
aF0.0
aF0.0
aF0.0
aF0.0
aF0.0
aF0.0
aF0.0
aF0.0
aF0.0
aF0.0
aF0.0
aF0.0
aF0.0
aF0.0
aF0.0
aF0.0
aF0.0
aF0.0
aF0.0
aF0.0
aF0.0
aF0.0
aF0.0
aF0.0
aF0.0
aF0.0
aF0.0
aF0.0
aF0.0052230999999999996
aF0.0
aF0.00035085200000000002
aF0.0098062099999999992
aF0.013159499999999999
aF0.0139877
aF0.0116997
aF0.0052823100000000001
aF0.0076279399999999997
aF0.0028441500000000002
aF-0.0097661599999999994
aF-0.0047441000000000002
aF-0.0021827499999999998
aF-0.0072990099999999999
aF-0.0137798
aF-0.0119974
aF-0.0148241
aF0.00199271
aF0.0
aF7.19806e-05
aF0.0038097600000000001
aF0.0049473800000000004
aF0.00209494
aF-0.0038162500000000002
aF-0.0019939900000000002
aF-0.0050640800000000003
aF0.00090132000000000005
aF0.0
aF2.64579e-05
aF0.00170696
aF-0.0017098199999999999
aF0.000404151
aF0.0
aF1.1535000000000001e-05
aF0.00016731600000000001
aF0.0
aF0.00065066600000000005
aF0.0
aF0.0014246300000000001
aF0.0
aF4.5602700000000003e-05
aF0.0011585600000000001
aF0.0
aF0.00170184
aF0.0
aF0.0033520899999999998
aF0.0
aF0.00016375499999999999
aF0.0064123899999999996
aF-0.0064176099999999998
aF0.0026266200000000001
aF0.0
aF0.000109585
aF0.0022999600000000002
aF0.0
aF0.00297605
aF0.0
aF0.0042024000000000002
aF0.0
aF0.000241413
aF0.0037591500000000002
aF0.0
aF0.0046879199999999999
aF0.0
aF0.0131707
aF0.0
aF0.00117756
aF0.018759499999999998
aF0.031072599999999999
aF0.0087176300000000005
aF-0.016804900000000001
aF-0.0062432
aF-0.0338223
aF0.0080790800000000006
aF0.0
aF0.00069514200000000005
aF0.0141514
aF-0.0138049
aF0.0064806200000000003
aF0.0
aF0.00050043899999999998
aF0.0058169199999999997
aF0.0
aF0.0072284899999999997
aF0.0
aF0.010196200000000001
aF0.0
aF0.00092959300000000004
aF0.0090570700000000004
aF0.0
aF0.011544199999999999
aF0.0
aF0.0261178
aF0.0
aF0.00145571
aF0.01933
aF-0.011888900000000001
aF0.0177556
aF0.0
aF0.0013818299999999999
aF0.015182899999999999
aF0.0
aF0.021197400000000002
aF0.0
aF0.049008599999999999
aF0.0
aF0.0012676
aF0.033939200000000003
aF0.0
aF0.091236899999999996
aF0.0
aF-1.6067500000000002e-05
aF0.0
aF-4.2073399999999999e-07
aF9.9783599999999998e-06
aF1.33782e-05
aF1.44496e-05
aF1.19023e-05
aF5.1376599999999997e-06
aF7.69207e-06
aF2.4055300000000001e-06
aF-1.10071e-05
aF-6.0350200000000004e-06
aF-3.26156e-06
aF-8.6505900000000008e-06
aF-1.45207e-05
aF-1.2996899999999999e-05
aF-1.5612099999999999e-05
aF0.0
aF0.0
aF0.0
aF0.0
aF0.0
aF0.0
aF0.0
aF0.0
aF0.0
aF0.0
aF0.0
aF0.0
aF0.0
aF0.0
aF0.0
aF0.0
aF0.0
aF0.0043731899999999999
aF0.0
aF6.11735e-05
aF0.0064921700000000002
aF0.0088884500000000009
aF0.0033724599999999999
aF-0.0065165800000000001
aF-0.0032853499999999998
aF-0.0090690300000000005
aF0.0015770000000000001
aF0.0
aF3.2094799999999998e-06
aF0.0026833899999999999
aF-0.00271039
aF0.00068948499999999999
aF0.0
aF-1.12342e-06
aF0.000290709
aF0.0
aF0.0011127400000000001
aF0.0
aF0.0027194699999999999
aF0.0
aF2.01305e-05
aF0.00210355
aF0.0
aF0.0034600400000000002
aF0.0
aF0.0120173
aF0.0
aF0.00024763399999999999
aF0.011651399999999999
aF-0.0111746
aF0.0070330100000000001
aF0.0
aF0.00013967100000000001
aF0.0055281000000000002
aF0.0
aF0.0090747799999999993
aF0.0
aF0.025546300000000001
aF0.0
aF0.00030211000000000002
aF0.016692100000000001
aF0.0
aF0.050646099999999999
aF0.0
aF2.53486e-05
aF0.0
aF-4.3062300000000003e-09
aF1.86779e-05
aF2.4720200000000001e-05
aF9.9364399999999997e-06
aF-1.8727199999999999e-05
aF-9.9568999999999995e-06
aF-2.47971e-05
aF0.0
aF0.0
aF0.0
aF0.0
aF0.0
aF0.0
aF0.0
aF0.0
aF0.0
aF0.0047723499999999999
aF0.0
aF9.1005000000000004e-06
aF0.0039659600000000001
aF-0.0039735100000000004
aF0.00133916
aF0.0
aF5.9648900000000004e-07
aF0.00048739600000000002
aF0.0
aF0.002764
aF0.0
aF0.0115219
aF0.0
aF4.7844599999999999e-05
aF0.0074018399999999998
aF0.0
aF0.022749999999999999
aF0.0
aF1.4997100000000001e-08
aF0.0
aF-6.8599800000000004e-14
aF7.1240400000000001e-09
aF-7.1256299999999999e-09
aF0.0
aF0.0
aF0.0
aF0.0
aF0.0
aF0.00065794400000000004
aF0.0
aF8.0500399999999995e-08
aF1.32714e-05
aF0.0
aF0.0064657899999999999
aF0.0
aF9.2258100000000004e-17
aF0.0
aF-3.6883000000000001e-29
aF0.0
aF0.0
aF0.0
aF8.7422000000000008e-06
aF0.0
aF0.0
aF0.0
aF0.0
aF0.0
aF6.1379400000000002e-11
aF0.0
aF0.0
aF0.0
aF2.5728799999999998e-06
aF0.0
aF-7.3738000000000004e-11
aF0.0
aF0.0
aF0.0
aF0.0026914
aF0.0
aF3.4355700000000001e-07
aF0.0
aF0.0
aF0.0
aF1.0008599999999999e-05
aF0.0
aF0.0
aF0.0
aF8.8851500000000001e-05
aF0.0
aF-1.8951799999999999e-07
aF7.8287699999999999e-05
aF-7.8917200000000004e-05
aF0.0
aF0.0
aF0.0
aF0.0
aF0.0
aF0.00591765
aF0.0
aF2.9513600000000001e-05
aF0.0030719699999999998
aF0.0
aF0.0123131
aF0.0
aF7.0234099999999999e-05
aF0.0
aF-4.8933099999999998e-08
aF0.0
aF0.0
aF0.0
aF0.0058765099999999997
aF0.0
aF4.7366200000000001e-05
aF0.0
aF0.0
aF0.0
aF8.6118800000000006e-05
aF0.0
aF0.0
aF0.0
aF5.0981299999999999e-05
aF0.0
aF-3.6519699999999998e-07
aF0.0
aF0.0
aF0.0
aF0.0052559700000000004
aF0.0
aF7.6362199999999999e-05
aF0.0
aF0.0
aF0.0
aF1.8057500000000001e-05
aF0.0
aF0.0
aF0.0
aF-1.9656700000000001e-05
aF0.0
aF1.91181e-07
aF-8.0102899999999995e-06
aF-1.07067e-05
aF-4.1941799999999999e-06
aF7.7630100000000007e-06
aF4.3913900000000001e-06
aF1.0037199999999999e-05
aF0.0
aF0.0
aF0.0
aF0.0
aF0.0
aF0.0
aF0.0
aF0.0
aF0.0
aF0.0044467100000000004
aF0.0
aF0.00019124100000000001
aF0.0074478699999999997
aF-0.0074242099999999997
aF0.00151946
aF0.0
aF3.8892400000000001e-05
aF0.00063754100000000004
aF0.0
aF0.00269746
aF0.0
aF0.012524499999999999
aF0.0
aF0.00063252100000000004
aF0.0072815800000000002
aF0.0
aF0.026167699999999999
aF0.0
aF-8.0385999999999999e-05
aF0.0
aF-9.8207899999999996e-08
aF-4.7426599999999998e-05
aF4.66921e-05
aF0.0
aF0.0
aF0.0
aF0.0
aF0.0
aF0.00353047
aF0.0
aF0.000117662
aF0.00072174399999999997
aF0.0
aF0.0118861
aF0.0
aF-6.7344799999999999e-05
aF0.0
aF-3.0094699999999997e-07
aF0.0
aF0.0
aF0.0
aF0.0037090700000000001
aF0.0
aF-4.5807999999999999e-05
aF0.0
aF0.0
aF0.0
aF-7.8881700000000001e-05
aF0.0
aF0.0
aF0.0
aF-5.8998800000000002e-05
aF0.0
aF7.5915500000000002e-08
aF0.0
aF0.0
aF0.0
aF0.0038465000000000001
aF0.0
aF-7.3094600000000003e-05
aF0.0
aF0.0
aF0.0
aF-4.04127e-05
aF0.0
aF0.0
aF0.0
aF4.8205099999999997e-05
aF0.0
aF3.4509799999999998e-07
aF4.76535e-05
aF-4.7650900000000001e-05
aF0.0
aF0.0
aF0.0
aF0.0
aF0.0
aF0.0053964399999999997
aF0.0
aF0.00027013800000000001
aF0.0021484
aF0.0
aF0.013271099999999999
aF0.0
aF2.0247200000000002e-05
aF0.0
aF2.7540300000000002e-07
aF0.0
aF0.0
aF0.0
aF0.0050393599999999997
aF0.0
aF1.1555899999999999e-06
aF0.0
aF0.0
aF0.0
aF3.6245399999999997e-05
aF0.0
aF0.0
aF0.0
aF5.8305499999999999e-05
aF0.0
aF3.8322000000000001e-07
aF0.0
aF0.0
aF0.0
aF0.0054358499999999999
aF0.0
aF5.56016e-05
aF0.0
aF0.0
aF0.0
aF5.6545700000000003e-05
aF0.0
aF0.0
aF0.0
aF4.8638799999999999e-08
aF0.0
aF5.9623399999999999e-07
aF1.73247e-05
aF2.19415e-05
aF2.2795100000000001e-05
aF2.0031299999999999e-05
aF9.8816300000000008e-06
aF1.39026e-05
aF5.3960800000000002e-06
aF-1.8036399999999999e-05
aF-9.2491499999999994e-06
aF-4.3491499999999997e-06
aF-1.3889299999999999e-05
aF-2.3935999999999999e-05
aF-2.14533e-05
aF-2.50831e-05
aF0.0
aF0.0
aF0.0
aF0.0
aF0.0
aF0.0
aF0.0
aF0.0
aF0.0
aF0.0
aF0.0
aF0.0
aF0.0
aF0.0
aF0.0
aF0.0
aF0.0
aF0.0051251200000000004
aF0.0
aF0.00077779399999999995
aF0.012087499999999999
aF0.015897499999999998
aF0.0067641300000000001
aF-0.012043
aF-0.0055881999999999998
aF-0.017301199999999999
aF0.0018905300000000001
aF0.0
aF0.00015290599999999999
aF0.0045164599999999999
aF-0.0045450000000000004
aF0.00080528100000000003
aF0.0
aF5.4656400000000001e-05
aF0.000310926
aF0.0
aF0.0013251300000000001
aF0.0
aF0.00324976
aF0.0
aF0.000356263
aF0.00252337
aF0.0
aF0.0041025000000000002
aF0.0
aF0.0128574
aF0.0
aF0.00272318
aF0.024374
aF-0.020339800000000002
aF0.0079581300000000008
aF0.0
aF0.0015686000000000001
aF0.0063791000000000004
aF0.0
aF0.010018900000000001
aF0.0
aF0.024838800000000001
aF0.0
aF0.0035276399999999999
aF0.017137699999999999
aF0.0
aF0.046457600000000002
aF0.0
aF-2.4960399999999999e-05
aF0.0
aF2.2840400000000001e-07
aF-2.7985600000000001e-07
aF-7.5039699999999997e-07
aF1.047e-07
aF-6.8319100000000005e-07
aF-6.5304100000000006e-08
aF-1.1697e-06
aF0.0
aF0.0
aF0.0
aF0.0
aF0.0
aF0.0
aF0.0
aF0.0
aF0.0
aF0.0046313099999999996
aF0.0
aF0.00053548599999999995
aF0.010500799999999999
aF-0.0104767
aF0.00153169
aF0.0
aF0.000101711
aF0.00061295499999999999
aF0.0
aF0.0027840899999999999
aF0.0
aF0.0126777
aF0.0
aF0.0018673299999999999
aF0.0075384500000000004
aF0.0
aF0.0253046
aF0.0
aF6.9876499999999999e-06
aF0.0
aF2.4973499999999998e-07
aF2.5836699999999999e-05
aF-2.6509600000000001e-05
aF0.0
aF0.0
aF0.0
aF0.0
aF0.0
aF0.0046591499999999999
aF0.0
aF0.00043711999999999999
aF0.00158234
aF0.0
aF0.012738299999999999
aF0.0
aF3.10892e-05
aF0.0
aF3.1310999999999998e-07
aF0.0
aF0.0
aF0.0
aF0.0049114600000000003
aF0.0
aF4.2052299999999997e-05
aF0.0
aF0.0
aF0.0
aF1.90444e-05
aF0.0
aF0.0
aF0.0
aF-1.3453400000000001e-05
aF0.0
aF2.16096e-07
aF0.0
aF0.0
aF0.0
aF0.0045627599999999999
aF0.0
aF-4.1087400000000004e-06
aF0.0
aF0.0
aF0.0
aF-2.04966e-05
aF0.0
aF0.0
aF0.0
aF-1.9953300000000001e-05
aF0.0
aF3.6713199999999998e-07
aF1.7102200000000001e-06
aF-2.6532899999999998e-06
aF0.0
aF0.0
aF0.0
aF0.0
aF0.0
aF0.0049854399999999998
aF0.0
aF0.00064926000000000003
aF0.0017808699999999999
aF0.0
aF0.0128513
aF0.0
aF-2.6339700000000001e-05
aF0.0
aF2.8256000000000001e-07
aF0.0
aF0.0
aF0.0
aF0.0048026299999999996
aF0.0
aF-2.6833900000000001e-05
aF0.0
aF0.0
aF0.0
aF-2.3876999999999999e-05
aF0.0
aF0.0
aF0.0
aF-9.8824599999999996e-06
aF0.0
aF4.7349500000000002e-07
aF0.0
aF0.0
aF0.0
aF0.0051038300000000002
aF0.0
aF-1.51142e-05
aF0.0
aF0.0
aF0.0
aF-4.7104400000000001e-06
aF0.0
aF0.0
aF0.0
aF1.2012699999999999e-05
aF0.0
aF1.03457e-06
aF2.8657e-05
aF3.6498699999999997e-05
aF1.62846e-05
aF-2.8994200000000001e-05
aF-1.49239e-05
aF-3.84504e-05
aF0.0
aF0.0
aF0.0
aF0.0
aF0.0
aF0.0
aF0.0
aF0.0
aF0.0
aF0.0048249199999999999
aF0.0
aF0.0010609
aF0.0129824
aF-0.012919099999999999
aF0.00169067
aF0.0
aF0.000212905
aF0.00069970000000000004
aF0.0
aF0.0029850900000000001
aF0.0
aF0.0124356
aF0.0
aF0.0037412299999999999
aF0.0076294700000000002
aF0.0
aF0.024070299999999999
aF0.0
aF1.1620900000000001e-05
aF0.0
aF8.5548600000000004e-07
aF2.74298e-05
aF-2.7864700000000001e-05
aF0.0
aF0.0
aF0.0
aF0.0
aF0.0
aF0.0049629899999999996
aF0.0
aF0.00091699399999999997
aF0.0017808699999999999
aF0.0
aF0.012645
aF0.0
aF7.4659799999999996e-06
aF0.0
aF7.2789399999999999e-07
aF0.0
aF0.0
aF0.0
aF0.0050634299999999998
aF0.0
aF4.1524899999999998e-06
aF0.0
aF0.0
aF0.0
aF9.9462100000000004e-06
aF0.0
aF0.0
aF0.0
aF1.2876e-05
aF0.0
aF9.6245200000000005e-07
aF0.0
aF0.0
aF0.0
aF0.0048727500000000003
aF0.0
aF1.25646e-05
aF0.0
aF0.0
aF0.0
aF1.26597e-05
aF0.0
aF0.0
aF0.0
aF6.5363000000000004e-06
aF0.0
aF1.06122e-06
aF2.5146800000000001e-05
aF-2.56978e-05
aF0.0
aF0.0
aF0.0
aF0.0
aF0.0
aF0.0048580799999999999
aF0.0
aF0.0012063
aF0.0017230699999999999
aF0.0
aF0.0123418
aF0.0
aF9.7401800000000007e-06
aF0.0
aF1.06583e-06
aF0.0
aF0.0
aF0.0
aF0.0048255099999999999
aF0.0
aF1.1017599999999999e-05
aF0.0
aF0.0
aF0.0
aF8.2321099999999994e-06
aF0.0
aF0.0
aF0.0
aF2.7486499999999999e-06
aF0.0
aF1.0355699999999999e-06
aF0.0
aF0.0
aF0.0
aF0.0048960599999999998
aF0.0
aF4.6934800000000003e-06
aF0.0
aF0.0
aF0.0
aF7.5608999999999999e-07
aF0.0
aF0.0
aF0.0
aF-5.0884999999999996e-06
aF0.0
aF1.99922e-06
aF1.76369e-05
aF2.1378300000000002e-05
aF1.9789999999999999e-05
aF9.1206500000000005e-06
aF2.17269e-05
aF1.9834400000000001e-05
aF2.0677299999999999e-05
aF1.8825400000000001e-05
aF1.1094700000000001e-05
aF1.4716799999999999e-05
aF1.6266800000000002e-05
aF1.29909e-05
aF6.8250099999999997e-06
aF9.0361300000000002e-06
aF4.4740800000000004e-06
aF-1.9006599999999999e-05
aF-8.6842999999999992e-06
aF-3.23985e-06
aF-5.7998700000000002e-07
aF-5.9522100000000002e-06
aF-1.40542e-05
aF-1.13988e-05
aF-1.6605799999999999e-05
aF-2.6256899999999999e-05
aF-2.3171800000000001e-05
aF-2.1209600000000001e-05
aF-2.4862600000000001e-05
aF-2.5032300000000001e-05
aF-2.7042500000000001e-05
aF-1.31632e-05
aF0.0
aF0.0
aF0.0
aF0.0
aF0.0
aF0.0
aF0.0
aF0.0
aF0.0
aF0.0
aF0.0
aF0.0
aF0.0
aF0.0
aF0.0
aF0.0
aF0.0
aF0.0
aF0.0
aF0.0
aF0.0
aF0.0
aF0.0
aF0.0
aF0.0
aF0.0
aF0.0
aF0.0
aF0.0
aF0.0
aF0.0
aF0.0
aF0.0
aF0.0046324000000000001
aF0.0
aF0.0028578100000000001
aF0.0171608
aF0.0213245
aF0.020508499999999999
aF0.019591000000000001
aF0.01078
aF0.014189200000000001
aF0.0069960200000000004
aF-0.017217699999999999
aF-0.00653661
aF-0.0016467700000000001
aF-0.011783399999999999
aF-0.026585600000000001
aF-0.022411299999999999
aF-0.026476699999999999
aF0.0016554499999999999
aF0.0
aF0.00055065699999999997
aF0.0062382499999999999
aF0.00774444
aF0.0037470400000000001
aF-0.0063512799999999999
aF-0.0029985200000000002
aF-0.0086877699999999992
aF0.00065075400000000002
aF0.0
aF0.000195374
aF0.0025611599999999998
aF-0.0026084799999999998
aF0.00020213699999999999
aF0.0
aF7.9884700000000004e-05
aF3.46153e-05
aF0.0
aF0.00042047100000000001
aF0.0
aF0.0011317199999999999
aF0.0
aF0.00034317800000000003
aF0.00088718300000000005
aF0.0
aF0.00138696
aF0.0
aF0.0029157599999999999
aF0.0
aF0.00129284
aF0.010902200000000001
aF-0.0110884
aF0.0022426199999999999
aF0.0
aF0.00085177899999999999
aF0.00193976
aF0.0
aF0.0025669099999999999
aF0.0
aF0.00370127
aF0.0
aF0.0019356499999999999
aF0.0032925900000000002
aF0.0
aF0.0041461600000000003
aF0.0
aF0.0113042
aF0.0
aF0.0105086
aF0.035877100000000002
aF0.048637899999999998
aF0.022716299999999998
aF-0.021215999999999999
aF-0.00206222
aF-0.079962800000000001
aF0.0071385499999999996
aF0.0
aF0.00586683
aF0.025533699999999999
aF-0.023681199999999999
aF0.0057548199999999999
aF0.0
aF0.0041449399999999997
aF0.0051660999999999999
aF0.0
aF0.0064081299999999997
aF0.0
aF0.0089057100000000007
aF0.0
aF0.0080295799999999997
aF0.0079631000000000007
aF0.0
aF0.0100015
aF0.0
aF0.021790899999999998
aF0.0
aF0.014889100000000001
aF0.045480600000000003
aF0.0038985399999999998
aF0.0149418
aF0.0
aF0.012996300000000001
aF0.0129009
aF0.0
aF0.0177083
aF0.0
aF0.043002100000000001
aF0.0
aF0.0119551
aF0.028652899999999999
aF0.0
aF0.087670399999999996
aF0.0
aF5.6527500000000002e-06
aF0.0
aF1.73936e-06
aF2.4950899999999999e-05
aF3.1156199999999998e-05
aF3.1053999999999998e-05
aF2.85703e-05
aF1.48053e-05
aF2.0324100000000001e-05
aF8.5471600000000007e-06
aF-2.5595299999999999e-05
aF-1.2544000000000001e-05
aF-5.3851499999999996e-06
aF-1.9404700000000001e-05
aF-3.4527599999999998e-05
aF-3.0735100000000003e-05
aF-3.4827399999999998e-05
aF0.0
aF0.0
aF0.0
aF0.0
aF0.0
aF0.0
aF0.0
aF0.0
aF0.0
aF0.0
aF0.0
aF0.0
aF0.0
aF0.0
aF0.0
aF0.0
aF0.0
aF0.0047765300000000002
aF0.0
aF0.0020651200000000001
aF0.015725800000000002
aF0.019882199999999999
aF0.0095271899999999996
aF-0.0157021
aF-0.0064455700000000003
aF-0.0236057
aF0.0017153699999999999
aF0.0
aF0.00040568700000000001
aF0.0057430099999999998
aF-0.0058058500000000004
aF0.00069523999999999996
aF0.0
aF0.000145685
aF0.00023744099999999999
aF0.0
aF0.0011826899999999999
aF0.0
aF0.00300432
aF0.0
aF0.00094220399999999998
aF0.0023146299999999998
aF0.0
aF0.00381292
aF0.0
aF0.0117635
aF0.0
aF0.0075249699999999997
aF0.032884799999999999
aF-0.0228066
aF0.0073925700000000002
aF0.0
aF0.0042167999999999997
aF0.0059447500000000004
aF0.0
aF0.00924787
aF0.0
aF0.022538900000000001
aF0.0
aF0.010500600000000001
aF0.0155459
aF0.0
aF0.043674999999999999
aF0.0
aF-7.0502599999999998e-06
aF0.0
aF1.22231e-06
aF1.5077499999999999e-05
aF1.8533699999999998e-05
aF9.1518999999999996e-06
aF-1.6186500000000002e-05
aF-7.7555099999999995e-06
aF-2.2006199999999999e-05
aF0.0
aF0.0
aF0.0
aF0.0
aF0.0
aF0.0
aF0.0
aF0.0
aF0.0
aF0.0048011399999999997
aF0.0
aF0.00168995
aF0.0148916
aF-0.0148708
aF0.0017036499999999999
aF0.0
aF0.00032808499999999999
aF0.00068664699999999997
aF0.0
aF0.0030006899999999999
aF0.0
aF0.0119899
aF0.0
aF0.0061427900000000004
aF0.00748315
aF0.0
aF0.0229935
aF0.0
aF-7.2931700000000003e-06
aF0.0
aF1.0350099999999999e-06
aF1.5253699999999999e-05
aF-1.6442700000000001e-05
aF0.0
aF0.0
aF0.0
aF0.0
aF0.0
aF0.0048785699999999996
aF0.0
aF0.0015158999999999999
aF0.00174972
aF0.0
aF0.0121447
aF0.0
aF-4.7926200000000002e-06
aF0.0
aF1.0040700000000001e-06
aF0.0
aF0.0
aF0.0
aF0.0049093599999999998
aF0.0
aF-3.0962300000000001e-06
aF0.0
aF0.0
aF0.0
aF-6.2191600000000003e-06
aF0.0
aF0.0
aF0.0
aF-8.1298199999999994e-06
aF0.0
aF1.10908e-06
aF0.0
aF0.0
aF0.0
aF0.0048375400000000004
aF0.0
aF-7.9457499999999993e-06
aF0.0
aF0.0
aF0.0
aF-7.8267099999999998e-06
aF0.0
aF0.0
aF0.0
aF-6.0014899999999996e-07
aF0.0
aF1.5064399999999999e-06
aF1.9778900000000001e-05
aF-2.0603700000000001e-05
aF0.0
aF0.0
aF0.0
aF0.0
aF0.0
aF0.0047718700000000001
aF0.0
aF0.0018751799999999999
aF0.00169655
aF0.0
aF0.0118653
aF0.0
aF-4.29893e-06
aF0.0
aF1.3612199999999999e-06
aF0.0
aF0.0
aF0.0
aF0.0047788700000000002
aF0.0
aF-5.84798e-06
aF0.0
aF0.0
aF0.0
aF-2.5084200000000001e-06
aF0.0
aF0.0
aF0.0
aF3.0421399999999999e-06
aF0.0
aF1.6377800000000001e-06
aF0.0
aF0.0
aF0.0
aF0.0047741399999999996
aF0.0
aF1.29353e-06
aF0.0
aF0.0
aF0.0
aF4.5274699999999999e-06
aF0.0
aF0.0
aF0.0
aF3.0609600000000002e-07
aF0.0
aF1.83105e-06
aF2.2079800000000002e-05
aF2.7309900000000001e-05
aF1.33571e-05
aF-2.31485e-05
aF-1.1093299999999999e-05
aF-3.1489000000000003e-05
aF0.0
aF0.0
aF0.0
aF0.0
aF0.0
aF0.0
aF0.0
aF0.0
aF0.0
aF0.00470135
aF0.0
aF0.0024483299999999999
aF0.016480399999999999
aF-0.016496299999999998
aF0.0016848099999999999
aF0.0
aF0.00047516600000000001
aF0.00067316999999999995
aF0.0
aF0.0029584799999999999
aF0.0
aF0.0115189
aF0.0
aF0.0089827399999999995
aF0.0072591599999999997
aF0.0
aF0.022129699999999999
aF0.0
aF5.6939499999999999e-06
aF0.0
aF1.8320899999999999e-06
aF2.5729699999999999e-05
aF-2.6485499999999999e-05
aF0.0
aF0.0
aF0.0
aF0.0
aF0.0
aF0.0047552799999999998
aF0.0
aF0.0022556799999999999
aF0.0017133199999999999
aF0.0
aF0.0116486
aF0.0
aF6.5836400000000002e-06
aF0.0
aF1.8034500000000001e-06
aF0.0
aF0.0
aF0.0
aF0.0047713299999999998
aF0.0
aF6.3498200000000003e-06
aF0.0
aF0.0
aF0.0
aF6.3539500000000004e-06
aF0.0
aF0.0
aF0.0
aF3.3569e-06
aF0.0
aF1.8359399999999999e-06
aF0.0
aF0.0
aF0.0
aF0.0047302200000000003
aF0.0
aF4.6662899999999998e-06
aF0.0
aF0.0
aF0.0
aF1.86729e-06
aF0.0
aF0.0
aF0.0
aF-4.6849099999999997e-06
aF0.0
aF1.85964e-06
aF1.8212499999999999e-05
aF-1.95434e-05
aF0.0
aF0.0
aF0.0
aF0.0
aF0.0
aF0.0046539199999999998
aF0.0
aF0.0026479099999999998
aF0.0016601599999999999
aF0.0
aF0.0114006
aF0.0
aF-2.6112600000000001e-06
aF0.0
aF1.83437e-06
aF0.0
aF0.0
aF0.0
aF0.0046745600000000003
aF0.0
aF-1.21944e-06
aF0.0
aF0.0
aF0.0
aF-3.7870100000000002e-06
aF0.0
aF0.0
aF0.0
aF-5.5180700000000002e-06
aF0.0
aF1.9144799999999999e-06
aF0.0
aF0.0
aF0.0
aF0.0046404799999999998
aF0.0
aF-5.2665999999999997e-06
aF0.0
aF0.0
aF0.0
aF-5.4486699999999996e-06
aF0.0
aF0.0
aF0.0
aF-9.1878499999999998e-08
aF0.0
aF2.6732699999999999e-06
aF2.2146100000000001e-05
aF2.6896499999999999e-05
aF2.47168e-05
aF2.4925700000000001e-05
aF1.39748e-05
aF1.8489099999999999e-05
aF8.6664599999999997e-06
aF-2.3439100000000001e-05
aF-1.05961e-05
aF-3.8322700000000002e-06
aF-1.72734e-05
aF-3.2468200000000002e-05
aF-2.8637300000000001e-05
aF-3.05483e-05
aF0.0
aF0.0
aF0.0
aF0.0
aF0.0
aF0.0
aF0.0
aF0.0
aF0.0
aF0.0
aF0.0
aF0.0
aF0.0
aF0.0
aF0.0
aF0.0
aF0.0
aF0.0045265699999999997
aF0.0
aF0.0037594199999999999
aF0.0184397
aF0.022544100000000001
aF0.0119907
aF-0.018580200000000002
aF-0.0064125500000000004
aF-0.029524000000000002
aF0.0016255499999999999
aF0.0
aF0.00072334700000000005
aF0.0067002299999999997
aF-0.0068491300000000001
aF0.00063065599999999995
aF0.0
aF0.00025671100000000002
aF0.00018923900000000001
aF0.0
aF0.0011081000000000001
aF0.0
aF0.0028613800000000002
aF0.0
aF0.0016988999999999999
aF0.0022028999999999998
aF0.0
aF0.0036256399999999999
aF0.0
aF0.0109324
aF0.0
aF0.0137205
aF0.038254299999999998
aF-0.017118700000000001
aF0.00693386
aF0.0
aF0.0077090199999999996
aF0.0056070099999999999
aF0.0
aF0.0086265300000000003
aF0.0
aF0.021225999999999998
aF0.0
aF0.0193539
aF0.0144654
aF0.0
aF0.0425402
aF0.0
aF1.31574e-06
aF0.0
aF2.4554400000000001e-06
aF2.2668899999999999e-05
aF2.7720199999999999e-05
aF1.40945e-05
aF-2.37525e-05
aF-1.09585e-05
aF-3.26959e-05
aF0.0
aF0.0
aF0.0
aF0.0
aF0.0
aF0.0
aF0.0
aF0.0
aF0.0
aF0.0045934900000000004
aF0.0
aF0.0033023699999999998
aF0.017834800000000001
aF-0.017918099999999999
aF0.0016523899999999999
aF0.0
aF0.00063861799999999998
aF0.00064868100000000002
aF0.0
aF0.0029026899999999999
aF0.0
aF0.0111209
aF0.0
aF0.012097800000000001
aF0.0070469399999999998
aF0.0
aF0.021496500000000002
aF0.0
aF-1.8307699999999999e-06
aF0.0
aF2.22818e-06
aF2.0049300000000001e-05
aF-2.12742e-05
aF0.0
aF0.0
aF0.0
aF0.0
aF0.0
aF0.0046188599999999998
aF0.0
aF0.0030772500000000001
aF0.0016580500000000001
aF0.0
aF0.0112155
aF0.0
aF-3.69579e-06
aF0.0
aF2.1075000000000002e-06
aF0.0
aF0.0
aF0.0
aF0.0046262999999999999
aF0.0
aF-4.4845e-06
aF0.0
aF0.0
aF0.0
aF-2.7885099999999999e-06
aF0.0
aF0.0
aF0.0
aF-1.8713200000000001e-08
aF0.0
aF2.34816e-06
aF0.0
aF0.0
aF0.0
aF0.0046080299999999999
aF0.0
aF-8.8795400000000001e-07
aF0.0
aF0.0
aF0.0
aF7.28136e-07
aF0.0
aF0.0
aF0.0
aF1.79122e-06
aF0.0
aF2.6041499999999999e-06
aF2.33587e-05
aF-2.4463600000000001e-05
aF0.0
aF0.0
aF0.0
aF0.0
aF0.0
aF0.0045585699999999996
aF0.0
aF0.0035298299999999999
aF0.00163872
aF0.0
aF0.0110232
aF0.0
aF1.9312400000000001e-06
aF0.0
aF2.54174e-06
aF0.0
aF0.0
aF0.0
aF0.0045764100000000004
aF0.0
aF1.7203000000000001e-06
aF0.0
aF0.0
aF0.0
aF1.9505100000000001e-06
aF0.0
aF0.0
aF0.0
aF1.03354e-06
aF0.0
aF2.6454900000000001e-06
aF0.0
aF0.0
aF0.0
aF0.0045416299999999996
aF0.0
aF1.47574e-06
aF0.0
aF0.0
aF0.0
aF4.9880600000000005e-07
aF0.0
aF0.0
aF0.0
aF-3.16435e-06
aF0.0
aF2.8402200000000001e-06
aF1.98092e-05
aF2.3716199999999998e-05
aF1.2850000000000001e-05
aF-2.1437099999999998e-05
aF-9.3376899999999997e-06
aF-3.0016299999999999e-05
aF0.0
aF0.0
aF0.0
aF0.0
aF0.0
aF0.0
aF0.0
aF0.0
aF0.0
aF0.0044816999999999999
aF0.0
aF0.0042358099999999996
aF0.019021400000000001
aF-0.019237400000000002
aF0.0016105
aF0.0
aF0.00080992900000000003
aF0.00061747799999999997
aF0.0
aF0.0028375800000000001
aF0.0
aF0.0107782
aF0.0
aF0.0153688
aF0.0068474199999999999
aF0.0
aF0.0210031
aF0.0
aF-2.317e-06
aF0.0
aF2.72886e-06
aF2.05015e-05
aF-2.2016300000000001e-05
aF0.0
aF0.0
aF0.0
aF0.0
aF0.0
aF0.0045021200000000001
aF0.0
aF0.0039937799999999997
aF0.0016167099999999999
aF0.0
aF0.0108518
aF0.0
aF-1.2960299999999999e-06
aF0.0
aF2.6976300000000002e-06
aF0.0
aF0.0
aF0.0
aF0.0045135399999999999
aF0.0
aF-7.0178900000000001e-07
aF0.0
aF0.0
aF0.0
aF-1.8432599999999999e-06
aF0.0
aF0.0
aF0.0
aF-2.9682199999999999e-06
aF0.0
aF2.77501e-06
aF0.0
aF0.0
aF0.0
aF0.0044916799999999996
aF0.0
aF-2.6966799999999998e-06
aF0.0
aF0.0
aF0.0
aF-3.12432e-06
aF0.0
aF0.0
aF0.0
aF-2.3555300000000001e-06
aF0.0
aF3.0218e-06
aF2.0403699999999999e-05
aF-2.2003700000000001e-05
aF0.0
aF0.0
aF0.0
aF0.0
aF0.0
aF0.0044623600000000003
aF0.0
aF0.00448622
aF0.0016052600000000001
aF0.0
aF0.0107081
aF0.0
aF-2.92445e-06
aF0.0
aF2.9240299999999999e-06
aF0.0
aF0.0
aF0.0
aF0.0044719299999999998
aF0.0
aF-3.09397e-06
aF0.0
aF0.0
aF0.0
aF-2.67177e-06
aF0.0
aF0.0
aF0.0
aF-1.62149e-06
aF0.0
aF3.1260300000000002e-06
aF0.0
aF0.0
aF0.0
aF0.0044530699999999999
aF0.0
aF-1.9977400000000002e-06
aF0.0
aF0.0
aF0.0
aF-1.24972e-06
aF0.0
aF0.0
aF0.0
a.