(lp0
F0.0
aF0.0
aF0.0
aF0.0
aF0.0
aF0.0
aF0.0
aF0.0
aF0.0
aF0.0
aF0.0
aF0.0
aF0.0
aF0.0
aF0.0
aF0.0
aF0.0
aF0.0
aF0.0
aF0.0
aF0.0
aF0.0
aF0.0
aF0.0
aF0.0
aF0.0
aF0.0
aF0.0
aF0.0
aF0.0
aF0.0
aF0.0
aF0.0
aF0.0
aF0.0
aF0.0
aF0.0
aF0.0
aF0.0
aF0.0
aF0.0
aF0.0
aF0.0
aF0.0
aF0.0
aF0.0
aF0.0
aF0.0
aF0.0
aF0.0
aF0.0
aF0.0
aF0.0
aF0.0
aF0.0
aF0.0
aF0.0
aF0.0
aF0.0
aF0.0
aF0.0
aF0.0
aF0.0
aF0.0
aF0.0
aF0.0
aF0.0
aF0.0
aF0.0
aF0.0
aF0.0
aF0.0
aF0.0
aF0.0
aF0.0
aF0.0
aF0.0
aF0.0
aF0.0
aF0.0
aF0.0
aF0.0
aF0.0
aF0.0
aF0.0
aF0.0
aF0.0
aF0.0
aF0.0
aF0.0
aF0.0
aF0.0
aF0.0
aF0.0
aF0.0
aF0.0
aF0.0
aF0.0
aF0.0
aF0.0
aF0.0
aF0.0
aF0.0
aF0.0
aF0.0
aF0.0
aF0.0
aF0.0
aF0.0
aF0.0
aF0.0
aF0.0
aF0.0
aF0.0
aF0.0
aF0.0
aF0.0
aF0.0
aF0.0
aF0.0
aF0.0
aF0.0
aF0.0
aF0.0
aF0.0
aF0.0
aF0.0
aF0.0
aF0.0
aF1.0
aF1.0
aF1.0
aF1.0
aF1.0
aF1.0
aF1.0
aF1.0
aF1.0
aF1.0
aF1.0
aF1.0
aF1.0
aF1.0
aF1.0
aF1.0
aF1.0
aF1.0
aF1.0
aF1.0
aF1.0
aF1.0
aF1.0
aF1.0
aF1.0
aF1.0
aF1.0
aF1.0
aF1.0
aF1.0
aF1.0
aF1.0
aF1.0
aF1.0
aF1.0
aF1.0
aF1.0
aF1.0
aF1.0
aF1.0
aF1.0
aF1.0
aF1.0
aF1.0
aF1.0
aF1.0
aF1.0
aF1.0
aF1.0
aF1.0
aF1.0
aF1.0
aF1.0
aF1.0
aF1.0
aF1.0
aF1.0
aF1.0
aF1.0
aF1.0
aF1.0
aF1.0
aF1.0
aF1.0
aF1.0
aF1.0
aF1.0
aF1.0
aF1.0
aF1.0
aF1.0
aF1.0
aF1.0
aF1.0
aF1.0
aF1.0
aF1.0
aF1.0
aF1.0
aF1.0
aF1.0
aF1.0
aF1.0
aF1.0
aF1.0
aF1.0
aF1.0
aF1.0
aF1.0
aF1.0
aF1.0
aF1.0
aF1.0
aF1.0
aF1.0
aF1.0
aF1.0
aF1.0
aF1.0
aF1.0
aF1.0
aF1.0
aF1.0
aF1.0
aF1.0
aF1.0
aF1.0
aF1.0
aF1.0
aF1.0
aF1.0
aF1.0
aF1.0
aF1.0
aF1.0
aF1.0
aF1.0
aF1.0
aF1.0
aF1.0
aF1.0
aF1.0
aF1.0
aF1.0
aF1.0
aF1.0
aF1.0
aF1.0
aF1.0
aF-6.1010699999999995e-11
aF0.0
aF-7.1131499999999998e-17
aF-2.5821100000000002e-12
aF-1.21971e-11
aF1.1876099999999999e-11
aF3.6059799999999997e-11
aF4.8980999999999997e-11
aF2.33632e-11
aF-4.8722100000000003e-12
aF2.3284700000000001e-12
aF-9.6471600000000007e-12
aF-8.9776099999999993e-12
aF-1.22991e-11
aF-1.29171e-11
aF-1.0840499999999999e-11
aF-5.2687499999999997e-12
aF-7.0458699999999997e-12
aF-3.7672999999999999e-12
aF-3.1372600000000002e-14
aF-3.8401399999999998e-13
aF-1.07536e-12
aF-1.69942e-12
aF-6.5484999999999998e-13
aF-1.1813299999999999e-13
aF-2.1695899999999999e-13
aF-6.2003399999999995e-14
aF-1.42478e-15
aF-7.19583e-15
aF-1.53032e-14
aF-3.26137e-15
aF-2.4729800000000001e-16
aF-6.0076299999999998e-16
aF-1.07579e-16
aF-2.5821100000000002e-12
aF-3.1372600000000002e-14
aF-1.42478e-15
aF-2.4729800000000001e-16
aF-1.07579e-16
aF-6.0076299999999998e-16
aF-7.19583e-15
aF-3.26137e-15
aF-1.53032e-14
aF-3.8401399999999998e-13
aF-1.1813299999999999e-13
aF-6.2003399999999995e-14
aF-2.1695899999999999e-13
aF-1.07536e-12
aF-6.5484999999999998e-13
aF-1.69942e-12
aF-1.21971e-11
aF-8.9776099999999993e-12
aF-5.2687499999999997e-12
aF-3.7672999999999999e-12
aF-7.0458699999999997e-12
aF-1.22991e-11
aF-1.0840499999999999e-11
aF-1.29171e-11
aF1.1876099999999999e-11
aF-4.8722100000000003e-12
aF-9.6471600000000007e-12
aF2.3284700000000001e-12
aF3.6059799999999997e-11
aF2.33632e-11
aF4.8980999999999997e-11
aF-1.3802499999999999e-26
aF0.0
aF1.5724400000000001e-35
aF8.4518000000000002e-29
aF3.8121599999999998e-27
aF9.8771799999999994e-27
aF1.26078e-26
aF6.63197e-27
aF7.8477500000000001e-28
aF1.8729000000000002e-27
aF2.7970399999999998e-28
aF1.2338000000000001e-31
aF4.6251800000000003e-30
aF2.1566300000000001e-29
aF8.2904100000000005e-31
aF1.51353e-33
aF1.5126100000000001e-32
aF1.2263100000000001e-34
aF8.4518000000000002e-29
aF1.2338000000000001e-31
aF1.51353e-33
aF1.2263100000000001e-34
aF1.5126100000000001e-32
aF4.6251800000000003e-30
aF8.2904100000000005e-31
aF2.1566300000000001e-29
aF3.8121599999999998e-27
aF7.8477500000000001e-28
aF2.7970399999999998e-28
aF1.8729000000000002e-27
aF9.8771799999999994e-27
aF6.63197e-27
aF1.26078e-26
aF0.0
aF0.0
aF0.0
aF0.0
aF0.0
aF0.0
aF0.0
aF0.0
aF0.0
aF0.0
aF0.0
aF0.0
aF0.0
aF0.0
aF0.0
aF0.0
aF0.0
aF0.0
aF0.0
aF0.0
aF0.0
aF0.0
aF0.0
aF0.0
aF0.0
aF0.0
aF0.0
aF0.0
aF0.0
aF0.0
aF0.0
aF0.0
aF0.0
aF0.0
aF0.0
aF0.0
aF0.0
aF0.0
aF0.0
aF0.0
aF0.0
aF0.0
aF0.0
aF0.0
aF0.0
aF0.0
aF0.0
aF0.0
aF0.0
aF0.0
aF0.0
aF0.0
aF0.0
aF0.0
aF0.0
aF0.0
aF0.0
aF0.0
aF0.0
aF0.0
aF0.0
aF0.0
aF0.0
aF0.0
aF0.0
aF0.0
aF0.0
aF0.0
aF0.0
aF0.0
aF0.0
aF0.0
aF0.0
aF0.0
aF0.0
aF0.0
aF0.0
aF0.0
aF0.0
aF0.0
aF0.0
aF0.0
aF0.0
aF0.0
aF0.0
aF0.0
aF0.0
aF0.0
aF0.0
aF0.0
aF0.0
aF0.0
aF-2.5469899999999998e-31
aF0.0
aF1.4623400000000001e-40
aF1.4314699999999999e-33
aF1.4314699999999999e-33
aF0.0
aF0.0
aF0.0
aF0.0
aF0.0
aF5.1433300000000001e-33
aF0.0
aF-1.06165e-28
aF0.0
aF8.8220500000000003e-38
aF6.2985500000000003e-30
aF0.0
aF1.33682e-27
aF0.0
aF-2.5243700000000001e-16
aF0.0
aF-6.1865699999999999e-24
aF3.2299299999999998e-19
aF4.8305199999999998e-17
aF1.5147900000000001e-16
aF7.3720399999999995e-18
aF-4.62818e-21
aF-3.7334299999999999e-20
aF-1.82375e-22
aF3.2299299999999998e-19
aF-4.62818e-21
aF-1.82375e-22
aF-3.7334299999999999e-20
aF4.8305199999999998e-17
aF7.3720399999999995e-18
aF1.5147900000000001e-16
aF-1.7678300000000001e-20
aF0.0
aF1.8870300000000001e-29
aF1.01228e-22
aF4.49791e-21
aF1.5993e-25
aF1.01228e-22
aF1.5993e-25
aF4.49791e-21
aF-3.4575400000000001e-23
aF0.0
aF5.8814600000000004e-32
aF2.15805e-25
aF2.15805e-25
aF-8.8772400000000003e-25
aF0.0
aF1.2961099999999999e-33
aF1.1792500000000001e-25
aF0.0
aF5.7859699999999998e-24
aF0.0
aF-9.1441399999999995e-22
aF0.0
aF1.5358699999999999e-30
aF1.83263e-22
aF0.0
aF4.1030999999999998e-21
aF0.0
aF-3.1285899999999999e-18
aF0.0
aF-1.40405e-26
aF1.32378e-20
aF1.32378e-20
aF-2.63038e-19
aF0.0
aF-1.81496e-28
aF6.9026100000000002e-20
aF0.0
aF9.11675e-19
aF0.0
aF-3.0624300000000001e-17
aF0.0
aF-3.58968e-25
aF9.7708500000000007e-18
aF0.0
aF8.7187400000000005e-17
aF0.0
aF-2.9015200000000002e-13
aF0.0
aF-6.3320899999999994e-20
aF-3.4408400000000001e-15
aF1.66982e-14
aF-4.0406999999999998e-17
aF-3.4408400000000001e-15
aF-4.0406999999999998e-17
aF1.66982e-14
aF-1.0999199999999999e-14
aF0.0
aF-8.8733900000000003e-22
aF-4.1632100000000002e-17
aF-4.1632100000000002e-17
aF-1.78523e-15
aF0.0
aF-8.2079299999999999e-23
aF6.6119399999999997e-16
aF0.0
aF4.3335699999999999e-15
aF0.0
aF-5.9807199999999999e-14
aF0.0
aF-8.0779899999999996e-21
aF2.4891699999999999e-14
aF0.0
aF1.2677999999999999e-13
aF0.0
aF-5.0311199999999997e-12
aF0.0
aF-2.6441700000000002e-18
aF-1.2154700000000001e-13
aF-1.2154700000000001e-13
aF-1.2678699999999999e-12
aF0.0
aF-4.3450700000000003e-19
aF5.7833400000000001e-13
aF0.0
aF2.3832399999999998e-12
aF0.0
aF-1.82608e-11
aF0.0
aF-1.4421999999999999e-17
aF8.9382900000000003e-12
aF0.0
aF3.0708600000000003e-11
aF0.0
aF-6.33232e-06
aF0.0
aF-6.5624100000000001e-10
aF-4.4434599999999996e-06
aF-3.22048e-05
aF-2.9907999999999999e-05
aF-1.47216e-05
aF-3.5401200000000003e-05
aF-1.5716300000000001e-05
aF-2.4291399999999999e-05
aF-8.8874799999999995e-06
aF-9.0392299999999996e-08
aF-7.8808900000000004e-07
aF-1.9784599999999999e-06
aF-2.8160399999999999e-07
aF-6.7692000000000002e-09
aF-2.6078e-08
aF-1.6340400000000001e-09
aF-4.4434599999999996e-06
aF-9.0392299999999996e-08
aF-6.7692000000000002e-09
aF-1.6340400000000001e-09
aF-2.6078e-08
aF-7.8808900000000004e-07
aF-2.8160399999999999e-07
aF-1.9784599999999999e-06
aF-3.22048e-05
aF-1.5716300000000001e-05
aF-8.8874799999999995e-06
aF-2.4291399999999999e-05
aF-2.9907999999999999e-05
aF-3.5401200000000003e-05
aF-1.47216e-05
aF-8.6127399999999996e-08
aF0.0
aF-1.39426e-12
aF-1.94644e-08
aF-1.3176399999999999e-07
aF-9.4527900000000006e-08
aF-6.9068400000000002e-08
aF-3.1839099999999998e-10
aF-3.2075799999999998e-09
aF-1.91945e-11
aF-1.94644e-08
aF-3.1839099999999998e-10
aF-1.91945e-11
aF-3.2075799999999998e-09
aF-1.3176399999999999e-07
aF-6.9068400000000002e-08
aF-9.4527900000000006e-08
aF-3.6915200000000001e-09
aF0.0
aF-1.7660899999999999e-14
aF-3.8950499999999999e-10
aF-2.4945300000000001e-09
aF-5.4935799999999997e-12
aF-3.8950499999999999e-10
aF-5.4935799999999997e-12
aF-2.4945300000000001e-09
aF-5.4313900000000004e-10
aF0.0
aF-1.3175600000000001e-15
aF-3.7211699999999999e-11
aF-3.7211699999999999e-11
aF-1.8870999999999999e-10
aF0.0
aF-3.1966199999999999e-16
aF9.7196700000000006e-11
aF0.0
aF2.84837e-10
aF0.0
aF-1.4613900000000001e-09
aF0.0
aF-5.0096099999999998e-15
aF7.7623699999999997e-10
aF0.0
aF1.9747100000000001e-09
aF0.0
aF-1.9792899999999999e-08
aF0.0
aF-1.78105e-13
aF-3.1022699999999999e-09
aF-3.1022699999999999e-09
aF-8.7887100000000004e-09
aF0.0
aF-5.7993399999999994e-14
aF4.70498e-09
aF0.0
aF1.05287e-08
aF0.0
aF-4.231e-08
aF0.0
aF-5.1346799999999999e-13
aF2.2179200000000001e-08
aF0.0
aF4.4058100000000002e-08
aF0.0
aF-9.6485200000000002e-07
aF0.0
aF-4.4108600000000003e-11
aF-4.1533299999999998e-07
aF-2.8738100000000002e-06
aF-7.6916699999999994e-09
aF-4.1533299999999998e-07
aF-7.6916699999999994e-09
aF-2.8738100000000002e-06
aF-3.1206899999999999e-07
aF0.0
aF-8.69332e-12
aF-9.8851899999999999e-08
aF-9.8851899999999999e-08
aF-1.6748199999999999e-07
aF0.0
aF-3.5768299999999998e-12
aF8.2618900000000001e-08
aF0.0
aF1.4628699999999999e-07
aF0.0
aF-5.58867e-07
aF0.0
aF-2.0068700000000001e-11
aF2.4434199999999998e-07
aF0.0
aF3.83933e-07
aF0.0
aF-2.6089600000000001e-06
aF0.0
aF-1.8545500000000001e-10
aF-1.46962e-06
aF-1.46962e-06
aF-1.6108399999999999e-06
aF0.0
aF-9.24993e-11
aF5.6422899999999999e-07
aF0.0
aF7.66554e-07
aF0.0
aF-4.1128200000000004e-06
aF0.0
aF-3.5614799999999999e-10
aF9.3942699999999996e-07
aF0.0
aF9.7748499999999997e-07
aF0.0
aF-0.00013642099999999999
aF0.0
aF-2.3375100000000001e-08
aF-9.3839500000000002e-05
aF-0.00092034300000000001
aF-0.0011734200000000001
aF-0.00036221000000000002
aF-2.15024e-06
aF-1.6945399999999999e-05
aF-1.9114600000000001e-07
aF-9.3839500000000002e-05
aF-2.15024e-06
aF-1.9114600000000001e-07
aF-1.6945399999999999e-05
aF-0.00092034300000000001
aF-0.00036221000000000002
aF-0.0011734200000000001
aF-3.02668e-05
aF0.0
aF-5.1578900000000003e-09
aF-2.6490900000000001e-05
aF-0.000213842
aF-5.75909e-07
aF-2.6490900000000001e-05
aF-5.75909e-07
aF-0.000213842
aF-1.4189799999999999e-05
aF0.0
aF-1.9806e-09
aF-1.16152e-05
aF-1.16152e-05
aF-9.5565099999999997e-06
aF0.0
aF-1.16208e-09
aF6.93327e-07
aF0.0
aF-2.1908800000000001e-07
aF0.0
aF-2.08103e-05
aF0.0
aF-3.2535099999999999e-09
aF-2.2321799999999999e-06
aF0.0
aF-6.0495600000000002e-06
aF0.0
aF-6.3527099999999997e-05
aF0.0
aF-1.17084e-08
aF-5.3073499999999999e-05
aF-5.3073499999999999e-05
aF-4.3840200000000001e-05
aF0.0
aF-7.9010799999999998e-09
aF-1.27007e-05
aF0.0
aF-2.3691999999999999e-05
aF0.0
aF-9.2559399999999993e-05
aF0.0
aF-1.6802399999999999e-08
aF-4.1269800000000003e-05
aF0.0
aF-6.8912300000000001e-05
aF0.0
aF-0.00090777399999999997
aF0.0
aF-6.5379400000000001e-08
aF-0.00020377200000000001
aF-0.0025367800000000002
aF-4.9841799999999999e-06
aF-0.00020377200000000001
aF-4.9841799999999999e-06
aF-0.0025367800000000002
aF-0.00031762199999999999
aF0.0
aF-4.1371400000000002e-08
aF-0.000146852
aF-0.000146852
aF-0.000205
aF0.0
aF-3.1554699999999997e-08
aF-0.000112316
aF0.0
aF-0.00018151899999999999
aF0.0
aF-0.00051636300000000004
aF0.0
aF-5.2727699999999998e-08
aF-0.00029591099999999999
aF0.0
aF-0.00049753299999999998
aF0.0
aF-0.0048725599999999997
aF0.0
aF-9.2852099999999995e-08
aF-0.00025113700000000002
aF-0.00025113700000000002
aF-0.00183034
aF0.0
aF-7.8931200000000005e-08
aF-0.00089280299999999996
aF0.0
aF-0.0018199900000000001
aF0.0
aF-0.0296382
aF0.0
aF-1.06509e-07
aF-0.0048672999999999998
aF0.0
aF0.052281800000000003
aF0.0
aF1.6116e-06
aF0.0
aF-0.00216731
aF-0.0013049800000000001
aF-0.00055437399999999995
aF-0.00015954000000000001
aF-2.24578e-05
aF1.7102200000000001e-06
aF1.6116e-06
aF-5.8670400000000002e-06
aF-7.9544500000000004e-05
aF-4.74402e-05
aF-0.00011735600000000001
aF-0.00035180999999999998
aF-0.00025259099999999998
aF-0.000204938
aF-0.00030174299999999999
aF-0.00045311199999999998
aF-0.00040236999999999998
aF-0.00050382900000000002
aF-0.00094575200000000001
aF-0.00075339000000000005
aF-0.00065461200000000005
aF-0.00060465699999999998
aF-0.000704201
aF-0.00085049099999999999
aF-0.00080216200000000004
aF-0.00089836199999999999
aF-0.0011301
aF-0.0010390099999999999
aF-0.00099264399999999999
aF-0.0010848399999999999
aF-0.00121882
aF-0.0011747699999999999
aF-0.00126223
aF-0.00187744
aF-0.0016199599999999999
aF-0.00146882
aF-0.00138838
aF-0.0013470400000000001
aF-0.0014289800000000001
aF-0.00154608
aF-0.00150786
aF-0.0015834499999999999
aF-0.00175672
aF-0.00169024
aF-0.0016555599999999999
aF-0.00172397
aF-0.00181919
aF-0.0017884699999999999
aF-0.0018488599999999999
aF-0.00206413
aF-0.0019804499999999999
aF-0.00193126
aF-0.0019049200000000001
aF-0.0019564500000000002
aF-0.0020248100000000002
aF-0.0020032499999999998
aF-0.0020451100000000002
aF-0.0021269000000000001
aF-0.00209822
aF-0.0020818400000000002
aF-0.0021132500000000001
aF-0.0021499900000000001
aF-0.0021391600000000002
aF-0.0021593799999999998
aF-0.0015774999999999999
aF-0.0020816599999999999
aF-0.0021758699999999999
aF-0.0021840200000000001
aF-0.0021787
aF-0.0021737599999999998
aF-0.00218213
aF-0.0021831200000000002
aF-0.0021843499999999998
aF-0.0021802900000000001
aF-0.00214196
aF-0.0021621800000000001
aF-0.0021698400000000001
aF-0.0021528900000000002
aF-0.0021151299999999998
aF-0.0021293800000000002
aF-0.0020992300000000001
aF-0.00188119
aF-0.0019946899999999999
aF-0.0020415099999999999
aF-0.0020624200000000001
aF-0.0020189299999999999
aF-0.00194123
aF-0.0019687799999999998
aF-0.0019120299999999999
aF-0.00174176
aF-0.0018146600000000001
aF-0.00184873
aF-0.001779
aF-0.0016626499999999999
aF-0.00170297
aF-0.0016208100000000001
aF-0.000711328
aF-0.0011813699999999999
aF-0.00139
aF-0.00148654
aF-0.0015327299999999999
aF-0.00143895
aF-0.0012881800000000001
aF-0.0013397299999999999
aF-0.0012353799999999999
aF-0.00095411300000000003
aF-0.0010698999999999999
aF-0.00112619
aF-0.00101252
aF-0.00083441500000000003
aF-0.00089472200000000003
aF-0.00077325099999999997
aF-0.00021621100000000001
aF-0.00045902999999999997
aF-0.00058569099999999995
aF-0.00064875299999999996
aF-0.00052234799999999995
aF-0.00033418800000000002
aF-0.00039612600000000001
aF-0.00027390999999999998
aF-3.7141999999999998e-05
aF-0.00011328
aF-0.00016220699999999999
aF-7.1005400000000003e-05
aF-8.3875400000000002e-07
aF-1.3366100000000001e-05
aF1.2652200000000001e-06
aF1.0
aF1.0
aF1.0
aF1.0
aF1.0
aF1.0
aF1.0
aF1.0
aF1.0
aF1.0
aF1.0
aF1.0
aF1.0
aF1.0
aF1.0
aF1.0
aF1.0
aF1.0
aF1.0
aF1.0
aF1.0
aF1.0
aF1.0
aF1.0
aF1.0
aF1.0
aF1.0
aF1.0
aF1.0
aF1.0
aF1.0
aF1.0
aF1.0
aF1.0
aF1.0
aF1.0
aF1.0
aF1.0
aF1.0
aF1.0
aF1.0
aF1.0
aF1.0
aF1.0
aF1.0
aF1.0
aF1.0
aF1.0
aF1.0
aF1.0
aF1.0
aF1.0
aF1.0
aF1.0
aF1.0
aF1.0
aF1.0
aF1.0
aF1.0
aF1.0
aF1.0
aF1.0
aF1.0
aF1.0
aF1.0
aF1.0
aF1.0
aF1.0
aF1.0
aF1.0
aF1.0
aF1.0
aF1.0
aF1.0
aF1.0
aF1.0
aF1.0
aF1.0
aF1.0
aF1.0
aF1.0
aF1.0
aF1.0
aF1.0
aF1.0
aF1.0
aF1.0
aF1.0
aF1.0
aF1.0
aF1.0
aF1.0
aF1.0
aF1.0
aF1.0
aF1.0
aF1.0
aF1.0
aF1.0
aF1.0
aF1.0
aF1.0
aF1.0
aF1.0
aF1.0
aF1.0
aF1.0
aF1.0
aF1.0
aF1.0
aF1.0
aF1.0
aF1.0
aF1.0
aF1.0
aF1.0
aF1.0
aF1.0
aF1.0
aF1.0
aF1.0
aF1.0
aF1.0
aF1.0
aF1.0
aF1.0
aF1.0
aF1.0
aF1.0
aF-5.9288099999999999e-05
aF0.0
aF-0.028838699999999998
aF-0.0168945
aF-0.0077691000000000001
aF-0.00284556
aF-0.00085423599999999997
aF-0.00023054
aF-0.0017593800000000001
aF-0.0052712200000000001
aF-0.0040342800000000003
aF-0.00652258
aF-0.0125554
aF-0.010210500000000001
aF-0.0090003099999999992
aF-0.0113963
aF-0.0147869
aF-0.0136861
aF-0.015856599999999998
aF-0.023989
aF-0.020714300000000001
aF-0.018871599999999999
aF-0.017899600000000002
aF-0.019809899999999998
aF-0.022420499999999999
aF-0.0215845
aF-0.023222
aF-0.026707000000000002
aF-0.0254186
aF-0.024721199999999999
aF-0.026080599999999999
aF-0.027849700000000002
aF-0.027296899999999999
aF-0.0283641
aF-0.027593800000000002
aF-0.030871099999999999
aF-0.0302954
aF-0.029660800000000001
aF-0.029271700000000001
aF-0.030003100000000001
aF-0.030712799999999998
aF-0.030533600000000001
aF-0.030827500000000001
aF-0.030172399999999999
aF-0.030714399999999999
aF-0.030836200000000001
aF-0.030496499999999999
aF-0.029161699999999999
aF-0.0297311
aF-0.0284529
aF-0.0146705
aF-0.022486800000000001
aF-0.025387
aF-0.026574500000000001
aF-0.024025299999999999
aF-0.018889199999999998
aF-0.020772700000000002
aF-0.016848499999999999
aF-0.0054219799999999999
aF-0.0100371
aF-0.012385500000000001
aF-0.0076874300000000003
aF-0.0016348999999999999
aF-0.0033552
aF-0.00044432599999999999
aF-3.3339600000000002e-05
aF0.0
aF-0.0155169
aF-0.0096154299999999995
aF-0.0043746699999999998
aF-0.00159308
aF-0.00047909800000000001
aF-0.0029577100000000001
aF-0.0071168200000000003
aF-0.0057696800000000001
aF-0.0084024800000000004
aF-0.013535800000000001
aF-0.0117815
aF-0.0107451
aF-0.012714899999999999
aF-0.0148045
aF-0.0142354
aF-0.015234599999999999
aF-0.011624300000000001
aF-0.015009099999999999
aF-0.015605300000000001
aF-0.0156431
aF-0.015396099999999999
aF-0.013684999999999999
aF-0.0144397
aF-0.012745299999999999
aF-0.0055625900000000001
aF-0.0088746799999999994
aF-0.010329899999999999
aF-0.0072767800000000001
aF-0.0020450099999999999
aF-0.0037806599999999999
aF-0.00061957600000000005
aF-2.85998e-05
aF0.0
aF-0.012725500000000001
aF-0.0080788700000000001
aF-0.0036881700000000002
aF-0.0013485999999999999
aF-0.0059918200000000001
aF-0.011277300000000001
aF-0.0098652800000000006
aF-0.012249400000000001
aF-0.0090931099999999997
aF-0.012032899999999999
aF-0.0126622
aF-0.0108343
aF-0.0042808000000000004
aF-0.00687296
aF-0.00157336
aF-2.3205099999999999e-05
aF0.0
aF-0.010701499999999999
aF-0.0067541500000000004
aF-0.0030472699999999999
aF-0.0094671000000000009
aF-0.0076210999999999996
aF-0.0101143
aF-0.0035549100000000001
aF-1.10822e-05
aF0.0
aF-0.0071975399999999997
aF-0.0044581400000000002
aF-0.0051700499999999998
aF-1.72586e-06
aF0.0
aF-0.00410839
aF1.6116e-06
aF0.0
aF-6.49733e-06
aF0.0
aF-1.8442300000000001e-05
aF0.0
aF-0.0093207499999999992
aF-1.5113899999999999e-05
aF0.0
aF-2.1136099999999999e-05
aF0.0
aF-2.7387699999999999e-05
aF0.0
aF-0.0120949
aF-0.0076840500000000004
aF-0.0086040100000000005
aF-2.5942400000000001e-05
aF0.0
aF-0.0115616
aF-2.4797899999999999e-05
aF0.0
aF-2.68058e-05
aF0.0
aF-2.8142099999999999e-05
aF0.0
aF-0.0124498
aF-2.78472e-05
aF0.0
aF-2.8419999999999999e-05
aF0.0
aF-3.0399399999999999e-05
aF0.0
aF-0.013860600000000001
aF-0.0087112800000000001
aF-0.0039711700000000004
aF-0.012203500000000001
aF-0.0100927
aF-0.0132265
aF-0.0047819400000000001
aF-2.9384399999999999e-05
aF0.0
aF-0.0132462
aF-0.0083738300000000005
aF-0.0095424900000000007
aF-2.8979599999999999e-05
aF0.0
aF-0.0129806
aF-2.88237e-05
aF0.0
aF-2.92115e-05
aF0.0
aF-2.9853899999999999e-05
aF0.0
aF-0.0135373
aF-2.9649400000000001e-05
aF0.0
aF-3.0159500000000002e-05
aF0.0
aF-3.1719800000000001e-05
aF0.0
aF-0.0146138
aF-0.0091230200000000008
aF-0.010780700000000001
aF-3.1021800000000002e-05
aF0.0
aF-0.0142189
aF-3.0746400000000001e-05
aF0.0
aF-3.1409199999999997e-05
aF0.0
aF-3.2492400000000001e-05
aF0.0
aF-0.015046199999999999
aF-3.2146800000000002e-05
aF0.0
aF-3.29585e-05
aF0.0
aF-4.29871e-05
aF0.0
aF-0.0207589
aF-0.0124533
aF-0.00566221
aF-0.0020623400000000002
aF-0.0092082299999999995
aF-0.017689099999999999
aF-0.015305300000000001
aF-0.019533700000000001
aF-0.017009900000000001
aF-0.0209074
aF-0.0212614
aF-0.019538699999999999
aF-0.0084272600000000007
aF-0.013262599999999999
aF-0.00311327
aF-3.74951e-05
aF0.0
aF-0.017799100000000002
aF-0.010854000000000001
aF-0.0049325699999999998
aF-0.0153551
aF-0.0138587
aF-0.0175266
aF-0.0067280999999999999
aF-3.52608e-05
aF0.0
aF-0.016576500000000001
aF-0.0101914
aF-0.012642499999999999
aF-3.4261999999999998e-05
aF0.0
aF-0.016026700000000001
aF-3.3844599999999998e-05
aF0.0
aF-3.4805999999999998e-05
aF0.0
aF-3.6337800000000003e-05
aF0.0
aF-0.017167000000000002
aF-3.5843999999999998e-05
aF0.0
aF-3.69606e-05
aF0.0
aF-4.0061500000000003e-05
aF0.0
aF-0.019191300000000001
aF-0.0116066
aF-0.0153023
aF-3.8735300000000002e-05
aF0.0
aF-0.0184736
aF-3.8158000000000003e-05
aF0.0
aF-3.9439e-05
aF0.0
aF-4.1477299999999997e-05
aF0.0
aF-0.0199528
aF-4.0806799999999997e-05
aF0.0
aF-4.2265200000000003e-05
aF0.0
aF-5.0080000000000002e-05
aF0.0
aF-0.024437
aF-0.014449500000000001
aF-0.0065917299999999996
aF-0.020562
aF-0.0214126
aF-0.025305299999999999
aF-0.010918000000000001
aF-4.63092e-05
aF0.0
aF-0.022506600000000002
aF-0.013399100000000001
aF-0.0190274
aF-4.4595699999999997e-05
aF0.0
aF-0.021610000000000001
aF-4.3818800000000001e-05
aF0.0
aF-4.5472800000000003e-05
aF0.0
aF-4.8134599999999998e-05
aF0.0
aF-0.023448900000000002
aF-4.7233500000000001e-05
aF0.0
aF-4.9108299999999999e-05
aF0.0
aF-5.4372100000000001e-05
aF0.0
aF-0.026549400000000001
aF-0.0156118
aF-0.0242378
aF-5.2155299999999999e-05
aF0.0
aF-0.025470699999999999
aF-5.1105800000000001e-05
aF0.0
aF-5.3236399999999997e-05
aF0.0
aF-5.6744199999999998e-05
aF0.0
aF-0.027672499999999999
aF-5.5512500000000001e-05
aF0.0
aF-5.7948800000000003e-05
aF0.0
aF-0.00016872100000000001
aF0.0
aF-0.050757200000000002
aF-0.033518699999999998
aF-0.0182655
aF-0.0074182800000000002
aF-0.00234279
aF-0.0130362
aF-0.026921400000000002
aF-0.022889
aF-0.030435899999999998
aF-0.043053099999999997
aF-0.038713600000000001
aF-0.036253399999999998
aF-0.0409623
aF-0.046946000000000002
aF-0.045032999999999997
aF-0.048837199999999997
aF-0.084781499999999996
aF-0.060375499999999999
aF-0.0549544
aF-0.052768599999999999
aF-0.057431999999999997
aF-0.068879499999999996
aF-0.064052399999999995
aF-0.075493699999999997
aF-0.12998699999999999
aF-0.1138
aF-0.0976355
aF-0.128828
aF-0.0497516
aF-0.101339
aF-0.0104017
aF-8.9338400000000005e-05
aF0.0
aF-0.039436499999999999
aF-0.0234907
aF-0.0112803
aF-0.0042248700000000004
aF-0.0178228
aF-0.032493599999999997
aF-0.0283336
aF-0.036138799999999999
aF-0.048934699999999998
aF-0.045499600000000001
aF-0.042535000000000003
aF-0.048065900000000002
aF-0.030902499999999999
aF-0.044660199999999997
aF-0.0108241
aF-7.1644100000000001e-05
aF0.0
aF-0.033897200000000002
aF-0.019867099999999999
aF-0.0092794699999999997
aF-0.027970999999999999
aF-0.036375900000000003
aF-0.0376709
aF-0.020617699999999999
aF-6.4974600000000006e-05
aF0.0
aF-0.031294000000000002
aF-0.018308399999999999
aF-0.031593799999999998
aF-6.20236e-05
aF0.0
aF-0.0300465
aF-6.0562900000000003e-05
aF0.0
aF-6.3375999999999998e-05
aF0.0
aF-6.8169800000000006e-05
aF0.0
aF-0.032578500000000003
aF-6.6413499999999997e-05
aF0.0
aF-6.9706299999999994e-05
aF0.0
aF-7.9609099999999996e-05
aF0.0
aF-0.036622599999999998
aF-0.0215874
aF-0.042101100000000002
aF-7.5439900000000003e-05
aF0.0
aF-0.035246600000000003
aF-7.3291800000000002e-05
aF0.0
aF-7.7215699999999993e-05
aF0.0
aF-8.4215599999999994e-05
aF0.0
aF-0.038020900000000003
aF-8.1534100000000003e-05
aF0.0
aF-8.6316000000000005e-05
aF0.0
aF-0.00011738700000000001
aF0.0
aF-0.045165799999999999
aF-0.027954199999999998
aF-0.014074400000000001
aF-0.037531299999999997
aF-0.066189899999999996
aF-0.0535734
aF-0.052343399999999998
aF-0.00010155200000000001
aF0.0
aF-0.042298700000000002
aF-0.025602699999999999
aF-0.056990899999999997
aF-9.5075900000000002e-05
aF0.0
aF-0.040864200000000003
aF-9.1647100000000006e-05
aF0.0
aF-9.7634700000000002e-05
aF0.0
aF-0.000108922
aF0.0
aF-0.043734299999999997
aF-0.000104413
aF0.0
aF-0.000112155
aF0.0
aF-0.00013871000000000001
aF0.0
aF-0.047996400000000002
aF-0.0305805
aF-0.075961600000000004
aF-0.00012720400000000001
aF0.0
aF-0.046587999999999997
aF-0.000121078
aF0.0
aF-0.000131469
aF0.0
aF-0.000152349
aF0.0
aF-0.049387199999999999
aF-0.0001437
aF0.0
aF-0.00015826999999999999
aF0.0
aF-0.000640575
aF0.0
aF-0.052747000000000002
aF-0.046987300000000003
aF-0.036666299999999999
aF-0.020605399999999999
aF-0.043565899999999998
aF-0.0505076
aF-0.049040800000000002
aF-0.051692700000000001
aF-0.052607500000000001
aF-0.054834899999999999
aF-0.053790999999999999
aF-0.055341399999999999
aF-0.015304399999999999
aF-0.0359417
aF-0.11323900000000001
aF-0.00028373999999999999
aF0.0
aF-0.055905000000000003
aF-0.040444099999999997
aF-0.025086600000000001
aF-0.048963399999999997
aF-0.087701600000000005
aF-0.064287399999999995
aF-0.25883099999999998
aF-0.00021324700000000001
aF0.0
aF-0.053423199999999997
aF-0.036802799999999997
aF-0.089840900000000001
aF-0.000188641
aF0.0
aF-0.052103900000000002
aF-0.00017584999999999999
aF0.0
aF-0.000197364
aF0.0
aF-0.00024415800000000002
aF0.0
aF-0.0547032
aF-0.000224112
aF0.0
aF-0.00025795899999999999
aF0.0
aF-0.00040517999999999999
aF0.0
aF-0.057396200000000001
aF-0.0442928
aF-0.076153799999999994
aF-0.00033555800000000002
aF0.0
aF-0.056909899999999999
aF-0.00030166699999999998
aF0.0
aF-0.00035944900000000002
aF0.0
aF-0.00050167400000000002
aF0.0
aF-0.056579699999999997
aF-0.00043799399999999998
aF0.0
aF-0.00054840399999999995
aF0.0
aF-0.00287981
aF0.0
aF0.101494
aF0.014854600000000001
aF-0.035673900000000001
aF0.063648999999999997
aF0.15296499999999999
aF0.128416
aF0.21807399999999999
aF-0.0011860499999999999
aF0.0
aF-0.0201093
aF-0.040159899999999998
aF0.0024837800000000001
aF-0.000850182
aF0.0
aF-0.042544899999999997
aF-0.00071013499999999998
aF0.0
aF-0.00095960000000000001
aF0.0
aF-0.00176761
aF0.0
aF0.0236928
aF-0.00137057
aF0.0
aF-0.0021066800000000001
aF0.0
aF-0.0112605
aF0.0
aF0.42035600000000001
aF0.26481500000000002
aF0.48616599999999999
aF-0.0052839300000000001
aF0.0
aF0.22864399999999999
aF-0.00356485
aF0.0
aF-0.0067427199999999998
aF0.0
aF-0.0289384
aF0.0
aF0.68356899999999998
aF-0.0127163
aF0.0
aF0.091062699999999996
aF0.0
aF-5.4668300000000003e-06
aF0.0
aF-0.0026311699999999999
aF-0.00174157
aF-0.00083882100000000001
aF-0.00032917899999999997
aF-9.7549199999999998e-05
aF-2.3436699999999999e-05
aF-0.00020562
aF-0.00058627600000000005
aF-0.00045762400000000001
aF-0.00071351300000000004
aF-0.0013158499999999999
aF-0.00108267
aF-0.00096195299999999998
aF-0.0012007299999999999
aF-0.00153619
aF-0.0014277599999999999
aF-0.0016408799999999999
aF-0.0023744999999999999
aF-0.0020993700000000001
aF-0.0019299300000000001
aF-0.001838
aF-0.0020171299999999998
aF-0.0022480899999999999
aF-0.0021764200000000001
aF-0.0023141799999999999
aF-0.0025547999999999999
aF-0.00247715
aF-0.00242888
aF-0.0025191699999999998
aF-0.00260641
aF-0.00258392
aF-0.0026221899999999999
aF-0.0018500999999999999
aF-0.0024538799999999999
aF-0.0025980299999999999
aF-0.0026284799999999999
aF-0.00263328
aF-0.0026167400000000002
aF-0.0025397499999999999
aF-0.0025723600000000001
aF-0.0025002399999999999
aF-0.0022018300000000001
aF-0.0023409500000000001
aF-0.0024007500000000001
aF-0.0022745999999999999
aF-0.0020376999999999999
aF-0.0021228000000000002
aF-0.00194673
aF-0.00090677900000000003
aF-0.0014122500000000001
aF-0.0016408900000000001
aF-0.00174807
aF-0.00152885
aF-0.0011666599999999999
aF-0.00129141
aF-0.00103834
aF-0.00035751000000000001
aF-0.00063529199999999997
aF-0.00077230899999999999
aF-0.00049639900000000002
aF-0.000106401
aF-0.000223725
aF-2.54476e-05
aF1.0
aF1.0
aF1.0
aF1.0
aF1.0
aF1.0
aF1.0
aF1.0
aF1.0
aF1.0
aF1.0
aF1.0
aF1.0
aF1.0
aF1.0
aF1.0
aF1.0
aF1.0
aF1.0
aF1.0
aF1.0
aF1.0
aF1.0
aF1.0
aF1.0
aF1.0
aF1.0
aF1.0
aF1.0
aF1.0
aF1.0
aF1.0
aF1.0
aF1.0
aF1.0
aF1.0
aF1.0
aF1.0
aF1.0
aF1.0
aF1.0
aF1.0
aF1.0
aF1.0
aF1.0
aF1.0
aF1.0
aF1.0
aF1.0
aF1.0
aF1.0
aF1.0
aF1.0
aF1.0
aF1.0
aF1.0
aF1.0
aF1.0
aF1.0
aF1.0
aF1.0
aF1.0
aF1.0
aF1.0
aF1.0
aF-7.2913100000000005e-05
aF0.0
aF-0.021205999999999999
aF-0.014194500000000001
aF-0.0070691399999999998
aF-0.0028882399999999998
aF-0.00095678699999999996
aF-0.0050010599999999999
aF-0.010897499999999999
aF-0.0090421700000000004
aF-0.012618799999999999
aF-0.0189439
aF-0.016883599999999999
aF-0.0156174
aF-0.0179922
aF-0.020382600000000001
aF-0.019740199999999999
aF-0.020871600000000001
aF-0.017244300000000001
aF-0.020882899999999999
aF-0.0213946
aF-0.021382499999999999
aF-0.021232399999999998
aF-0.019552199999999999
aF-0.020329300000000002
aF-0.018530600000000001
aF-0.0092611199999999994
aF-0.013818799999999999
aF-0.015676699999999998
aF-0.011673899999999999
aF-0.0038512400000000001
aF-0.0066215299999999996
aF-0.00128794
aF-3.9515799999999999e-05
aF0.0
aF-0.0114371
aF-0.0076066800000000002
aF-0.0037104199999999999
aF-0.0015112599999999999
aF-0.0057743500000000001
aF-0.010315100000000001
aF-0.0091388100000000007
aF-0.011092100000000001
aF-0.00821414
aF-0.0107495
aF-0.0113271
aF-0.0097053
aF-0.00410094
aF-0.0063209499999999997
aF-0.0016788199999999999
aF-3.3397199999999999e-05
aF0.0
aF-0.0094305499999999993
aF-0.0063122400000000002
aF-0.0030787100000000001
aF-0.0085497400000000001
aF-0.0066234900000000001
aF-0.0087760100000000008
aF-0.00327561
aF-3.1412499999999998e-05
aF0.0
aF-0.0087062500000000004
aF-0.0058288799999999998
aF-0.0060895400000000001
aF-2.2368799999999998e-05
aF0.0
aF-0.0067607600000000002
aF-1.2063699999999999e-05
aF0.0
aF-2.8721000000000002e-05
aF0.0
aF-3.27146e-05
aF0.0
aF-0.0091534300000000006
aF-3.23376e-05
aF0.0
aF-3.3021200000000002e-05
aF0.0
aF-3.5781200000000002e-05
aF0.0
aF-0.010230899999999999
aF-0.0068273099999999996
aF-0.0072501299999999996
aF-3.44204e-05
aF0.0
aF-0.0097821999999999996
aF-3.3864900000000002e-05
aF0.0
aF-3.5059599999999999e-05
aF0.0
aF-3.7475000000000003e-05
aF0.0
aF-0.010781000000000001
aF-3.6585899999999998e-05
aF0.0
aF-3.8450800000000001e-05
aF0.0
aF-5.1705e-05
aF0.0
aF-0.0152341
aF-0.010092
aF-0.0049448399999999998
aF-0.0136528
aF-0.011434400000000001
aF-0.0145787
aF-0.0058375900000000001
aF-4.4734499999999997e-05
aF0.0
aF-0.013088799999999999
aF-0.0086805900000000002
aF-0.0095777499999999995
aF-4.1925899999999998e-05
aF0.0
aF-0.012204400000000001
aF-4.0673000000000002e-05
aF0.0
aF-4.3278300000000002e-05
aF0.0
aF-4.7978600000000002e-05
aF0.0
aF-0.014096600000000001
aF-4.6299399999999999e-05
aF0.0
aF-4.9778099999999997e-05
aF0.0
aF-6.0859200000000002e-05
aF0.0
aF-0.017924699999999998
aF-0.0119013
aF-0.013922199999999999
aF-5.5973100000000001e-05
aF0.0
aF-0.016508100000000001
aF-5.3767100000000002e-05
aF0.0
aF-5.83334e-05
aF0.0
aF-6.6462200000000002e-05
aF0.0
aF-0.019489300000000001
aF-6.3563800000000003e-05
aF0.0
aF-6.9572000000000004e-05
aF0.0
aF-0.00020487399999999999
aF0.0
aF-0.039752799999999998
aF-0.031729300000000002
aF-0.0185635
aF-0.0080853999999999995
aF-0.026419999999999999
aF-0.037205599999999998
aF-0.035102800000000003
aF-0.038608999999999997
aF-0.0458748
aF-0.042400500000000001
aF-0.040950899999999998
aF-0.044147899999999997
aF-0.039453200000000001
aF-0.046029800000000003
aF-0.018709900000000002
aF-0.000111906
aF0.0
aF-0.029581
aF-0.020786900000000001
aF-0.0108288
aF-0.026665399999999999
aF-0.027684400000000001
aF-0.030327099999999999
aF-0.016833299999999999
aF-8.9127600000000004e-05
aF0.0
aF-0.025100500000000001
aF-0.017095599999999999
aF-0.021695699999999998
aF-8.0387800000000003e-05
aF0.0
aF-0.023076800000000001
aF-7.6509300000000003e-05
aF0.0
aF-8.4581199999999996e-05
aF0.0
aF-9.9471100000000004e-05
aF0.0
aF-0.027271900000000002
aF-9.4072699999999998e-05
aF0.0
aF-0.000105389
aF0.0
aF-0.00014633300000000001
aF0.0
aF-0.034539
aF-0.025537600000000001
aF-0.035682199999999997
aF-0.000127155
aF0.0
aF-0.032011299999999999
aF-0.000119121
aF0.0
aF-0.000136162
aF0.0
aF-0.00017122900000000001
aF0.0
aF-0.037132699999999998
aF-0.000157916
aF0.0
aF-0.000186694
aF0.0
aF-0.00067449000000000003
aF0.0
aF-0.049005399999999998
aF-0.050157100000000003
aF-0.039090300000000001
aF-0.049899199999999998
aF-0.064632200000000001
aF-0.052253899999999999
aF-0.12294099999999999
aF-0.000325531
aF0.0
aF-0.0448758
aF-0.039844999999999998
aF-0.057051600000000001
aF-0.000252737
aF0.0
aF-0.042352000000000001
aF-0.00022653300000000001
aF0.0
aF-0.00028499900000000003
aF0.0
aF-0.00044656200000000001
aF0.0
aF-0.047253200000000002
aF-0.00037765599999999998
aF0.0
aF-0.00054068699999999998
aF0.0
aF-0.0027739599999999998
aF0.0
aF0.025667300000000001
aF-0.0122626
aF0.024277900000000002
aF-0.00119158
aF0.0
aF-0.042992599999999999
aF-0.00087429599999999999
aF0.0
aF-0.00173635
aF0.0
aF-0.0109461
aF0.0
aF0.33153100000000002
aF-0.0050486999999999997
aF0.0
aF-0.0289406
aF0.0
aF1.8644900000000002e-05
aF0.0
aF-0.00071243900000000004
aF-0.00045251999999999998
aF-0.000189097
aF-4.0152599999999999e-05
aF2.8750599999999999e-05
aF-0.000115652
aF-0.00032822599999999998
aF-0.00026017400000000001
aF-0.00039256300000000002
aF-0.00063710000000000004
aF-0.00055689699999999999
aF-0.00050748500000000001
aF-0.000600251
aF-0.00068977399999999999
aF-0.00066705400000000004
aF-0.00070497799999999998
aF-0.00048763099999999998
aF-0.00066240600000000004
aF-0.000703512
aF-0.00071198699999999997
aF-0.00068697400000000003
aF-0.00058974400000000001
aF-0.00062992600000000005
aF-0.00054217200000000005
aF-0.000212112
aF-0.00035989399999999998
aF-0.00042665599999999998
aF-0.00028809899999999999
aF-5.0675199999999999e-05
aF-0.000132786
aF2.5003399999999998e-05
aF1.0
aF1.0
aF1.0
aF1.0
aF1.0
aF1.0
aF1.0
aF1.0
aF1.0
aF1.0
aF1.0
aF1.0
aF1.0
aF1.0
aF1.0
aF1.0
aF1.0
aF1.0
aF1.0
aF1.0
aF1.0
aF1.0
aF1.0
aF1.0
aF1.0
aF1.0
aF1.0
aF1.0
aF1.0
aF1.0
aF1.0
aF1.0
aF1.0
aF-4.9247399999999999e-05
aF0.0
aF-0.012447
aF-0.0089791100000000002
aF-0.0047201999999999999
aF-0.0020600499999999999
aF-0.0070600200000000002
aF-0.0114921
aF-0.0104495
aF-0.0121469
aF-0.0097741800000000004
aF-0.0119822
aF-0.012400700000000001
aF-0.0111328
aF-0.0053305000000000002
aF-0.0078408999999999996
aF-0.0023557399999999998
aF-6.6226699999999997e-06
aF0.0
aF-0.0054758899999999998
aF-0.0037401600000000002
aF-0.00185928
aF-0.0049972899999999997
aF-0.0039019300000000001
aF-0.0051109700000000003
aF-0.0019683299999999999
aF1.8805100000000001e-06
aF0.0
aF-0.0039733299999999997
aF-0.0026914700000000001
aF-0.00277466
aF3.7156699999999999e-06
aF0.0
aF-0.0036232299999999999
aF8.3508199999999994e-06
aF0.0
aF3.02743e-06
aF0.0
aF-1.5693e-06
aF0.0
aF-0.0045817200000000001
aF3.4814100000000002e-07
aF0.0
aF-3.8860099999999996e-06
aF0.0
aF-2.2439e-05
aF0.0
aF-0.0082228500000000003
aF-0.00571361
aF-0.0060680500000000002
aF-1.34718e-05
aF0.0
aF-0.0066798300000000003
aF-9.80633e-06
aF0.0
aF-1.7663600000000001e-05
aF0.0
aF-3.4059200000000001e-05
aF0.0
aF-0.010136300000000001
aF-2.7872e-05
aF0.0
aF-4.1127800000000003e-05
aF0.0
aF-0.000215403
aF0.0
aF-0.025208100000000001
aF-0.023349999999999999
aF-0.015385899999999999
aF-0.0249191
aF-0.026835100000000001
aF-0.026064799999999999
aF-0.020989399999999998
aF-9.8364300000000003e-05
aF0.0
aF-0.018270000000000002
aF-0.014314
aF-0.016075900000000001
aF-6.9641799999999994e-05
aF0.0
aF-0.015166000000000001
aF-5.8647200000000003e-05
aF0.0
aF-8.2671500000000003e-05
aF0.0
aF-0.000141889
aF0.0
aF-0.021675099999999999
aF-0.00011764099999999999
aF0.0
aF-0.000173287
aF0.0
aF-0.00075455599999999998
aF0.0
aF-0.031418500000000002
aF-0.038361800000000001
aF-0.041457399999999998
aF-0.00036207299999999997
aF0.0
aF-0.028584499999999999
aF-0.00027444600000000002
aF0.0
aF-0.00050258599999999996
aF0.0
aF-0.0028491499999999999
aF0.0
aF-0.0190899
aF-0.0012935500000000001
aF0.0
aF-0.0103313
aF0.0
aF-2.7427300000000001e-05
aF0.0
aF-0.0046182999999999997
aF-0.0032248099999999998
aF-0.0016840399999999999
aF-0.00079305100000000002
aF-0.0025051100000000001
aF-0.0042542400000000003
aF-0.0038153100000000001
aF-0.0045252399999999998
aF-0.0032366199999999999
aF-0.0042627100000000003
aF-0.0045298300000000003
aF-0.0038263300000000002
aF-0.00169188
aF-0.0025158200000000002
aF-0.00079668899999999995
aF1.0
aF1.0
aF1.0
aF1.0
aF1.0
aF1.0
aF1.0
aF1.0
aF1.0
aF1.0
aF1.0
aF1.0
aF1.0
aF1.0
aF1.0
aF1.0
aF1.0
aF-0.00010817799999999999
aF0.0
aF-0.0125591
aF-0.0092188900000000004
aF-0.0049987800000000004
aF-0.011719200000000001
aF-0.0094011600000000004
aF-0.011828399999999999
aF-0.0051452499999999997
aF-6.1188100000000005e-05
aF0.0
aF-0.0078165400000000003
aF-0.0054899600000000003
aF-0.0055275899999999998
aF-4.9893299999999999e-05
aF0.0
aF-0.0067405099999999999
aF-4.6890800000000002e-05
aF0.0
aF-5.4652699999999999e-05
aF0.0
aF-7.9763899999999997e-05
aF0.0
aF-0.0097195700000000003
aF-6.9508699999999994e-05
aF0.0
aF-9.2363900000000005e-05
aF0.0
aF-0.00027979099999999999
aF0.0
aF-0.0208524
aF-0.019174400000000001
aF-0.019946499999999999
aF-0.000157973
aF0.0
aF-0.016381400000000001
aF-0.00012891500000000001
aF0.0
aF-0.00020254999999999999
aF0.0
aF-0.00087684999999999998
aF0.0
aF-0.024772099999999998
aF-0.00043899800000000001
aF0.0
aF-0.0032067900000000002
aF0.0
aF-6.2546499999999997e-08
aF0.0
aF-8.7518900000000007e-05
aF-7.1331500000000006e-05
aF-4.0476999999999999e-05
aF-8.4644900000000007e-05
aF-7.1551000000000007e-05
aF-8.4787699999999995e-05
aF-4.0640599999999998e-05
aF1.0
aF1.0
aF1.0
aF1.0
aF1.0
aF1.0
aF1.0
aF1.0
aF1.0
aF-2.1018599999999999e-05
aF0.0
aF-0.0029643600000000001
aF-0.00247204
aF-0.0024980200000000001
aF-2.4152900000000001e-06
aF0.0
aF-0.00053530199999999998
aF-8.4805699999999996e-07
aF0.0
aF-7.2719099999999996e-06
aF0.0
aF-0.00016207600000000001
aF0.0
aF-0.0084499699999999994
aF-5.7131099999999999e-05
aF0.0
aF-0.00071082399999999998
aF0.0
aF-1.6152499999999999e-10
aF0.0
aF-3.1746700000000002e-09
aF-8.7818900000000002e-09
aF-8.7837700000000006e-09
aF1.0
aF1.0
aF1.0
aF1.0
aF1.0
aF-4.2815999999999998e-06
aF0.0
aF-5.0735300000000002e-05
aF-1.1136600000000001e-07
aF0.0
aF-7.7093800000000004e-05
aF0.0
aF7.6137799999999992e-18
aF0.0
aF-9.9637300000000001e-20
aF1.0
aF1.0
aF1.0
aF-1.89064e-07
aF0.0
aF0.0
aF0.0
aF1.0
aF1.0
aF4.8966599999999999e-13
aF0.0
aF1.0
aF1.0
aF-3.9572499999999999e-08
aF0.0
aF-3.0056200000000002e-06
aF1.0
aF1.0
aF1.0
aF-1.05954e-05
aF0.0
aF-5.7345e-09
aF0.0
aF1.0
aF1.0
aF-9.8562799999999996e-08
aF0.0
aF1.0
aF1.0
aF-1.4301000000000001e-06
aF0.0
aF-0.0017690500000000001
aF-0.0012239900000000001
aF-0.00122982
aF1.0
aF1.0
aF1.0
aF1.0
aF1.0
aF-7.2980100000000003e-05
aF0.0
aF-0.0089240699999999992
aF-2.1712000000000002e-05
aF0.0
aF-0.00025128200000000002
aF0.0
aF5.5046000000000002e-07
aF0.0
aF-0.000582458
aF1.0
aF1.0
aF1.0
aF-4.3077800000000003e-05
aF0.0
aF2.0797600000000001e-07
aF0.0
aF1.0
aF1.0
aF3.11851e-07
aF0.0
aF1.0
aF1.0
aF-1.15601e-05
aF0.0
aF-0.0033514
aF1.0
aF1.0
aF1.0
aF-9.7327399999999999e-05
aF0.0
aF-5.3700799999999999e-06
aF0.0
aF1.0
aF1.0
aF-1.93148e-05
aF0.0
aF1.0
aF1.0
aF-8.8864099999999992e-06
aF0.0
aF-0.0013241800000000001
aF-0.00089988000000000004
aF-0.00044668099999999999
aF-0.0012081800000000001
aF-0.00092697000000000005
aF-0.00122762
aF-0.000464678
aF1.0
aF1.0
aF1.0
aF1.0
aF1.0
aF1.0
aF1.0
aF1.0
aF1.0
aF-6.8507899999999995e-05
aF0.0
aF-0.011936
aF-0.0087324700000000009
aF-0.0091738900000000005
aF-4.1440399999999997e-05
aF0.0
aF-0.0068532699999999998
aF-3.8115699999999998e-05
aF0.0
aF-4.9932300000000003e-05
aF0.0
aF-0.00022568499999999999
aF0.0
aF-0.021809800000000001
aF-0.00011038
aF0.0
aF-0.000795439
aF0.0
aF-3.9890099999999999e-05
aF0.0
aF-0.0042899699999999997
aF-0.0029872200000000001
aF-0.0030017899999999998
aF1.0
aF1.0
aF1.0
aF1.0
aF1.0
aF-9.7064400000000005e-05
aF0.0
aF-0.0130749
aF-7.1361100000000004e-05
aF0.0
aF-0.00025541799999999999
aF0.0
aF-3.9429399999999999e-05
aF0.0
aF-0.0049766999999999997
aF1.0
aF1.0
aF1.0
aF-0.000106628
aF0.0
aF-3.4530000000000003e-05
aF0.0
aF1.0
aF1.0
aF-4.1323799999999999e-05
aF0.0
aF1.0
aF1.0
aF-2.80001e-05
aF0.0
aF-0.0028848699999999999
aF1.0
aF1.0
aF1.0
aF-8.3314100000000002e-05
aF0.0
aF-3.5271400000000003e-05
aF0.0
aF1.0
aF1.0
aF-1.8885600000000001e-05
aF0.0
aF1.0
aF1.0
aF2.2168299999999999e-05
aF0.0
aF0.00036017900000000002
aF0.00029389999999999999
aF0.00026134599999999997
aF1.0
aF1.0
aF1.0
aF1.0
aF1.0
aF-4.7343399999999998e-05
aF0.0
aF-0.011260900000000001
aF-7.8582799999999992e-06
aF0.0
aF-0.000213007
aF0.0
aF9.9344999999999995e-06
aF0.0
aF-0.000136184
aF1.0
aF1.0
aF1.0
aF-5.56387e-05
aF0.0
aF1.01717e-06
aF0.0
aF1.0
aF1.0
aF1.7148900000000001e-05
aF0.0
aF1.0
aF1.0
aF2.4860700000000001e-05
aF0.0
aF0.000109855
aF1.0
aF1.0
aF1.0
aF-4.5210200000000003e-05
aF0.0
aF2.4743999999999999e-05
aF0.0
aF1.0
aF1.0
aF2.2709099999999999e-05
aF0.0
aF1.0
aF1.0
aF-8.1737100000000005e-07
aF0.0
aF-0.0019037100000000001
aF-0.00125891
aF-0.00059974400000000004
aF-0.000226765
aF-0.00094819900000000005
aF-0.0017192100000000001
aF-0.0015194900000000001
aF-0.0018494099999999999
aF-0.0013321299999999999
aF-0.0017724100000000001
aF-0.00187834
aF-0.00158833
aF-0.00064658399999999996
aF-0.0010137099999999999
aF-0.00024710699999999999
aF1.0
aF1.0
aF1.0
aF1.0
aF1.0
aF1.0
aF1.0
aF1.0
aF1.0
aF1.0
aF1.0
aF1.0
aF1.0
aF1.0
aF1.0
aF1.0
aF1.0
aF-7.6104899999999997e-05
aF0.0
aF-0.018329100000000001
aF-0.01272
aF-0.00650594
aF-0.016658099999999999
aF-0.014484199999999999
aF-0.017765400000000001
aF-0.00781235
aF-3.9127600000000001e-05
aF0.0
aF-0.0098590399999999995
aF-0.0066744500000000002
aF-0.0070310399999999997
aF-3.2276600000000002e-05
aF0.0
aF-0.0080970499999999997
aF-3.0765700000000003e-05
aF0.0
aF-3.4975299999999997e-05
aF0.0
aF-5.2607700000000001e-05
aF0.0
aF-0.013162699999999999
aF-4.4903800000000002e-05
aF0.0
aF-6.2733500000000005e-05
aF0.0
aF-0.000222998
aF0.0
aF-0.0342873
aF-0.029286300000000001
aF-0.0372865
aF-0.000119641
aF0.0
aF-0.0255517
aF-9.4167700000000003e-05
aF0.0
aF-0.000158145
aF0.0
aF-0.00071316000000000001
aF0.0
aF-0.042311099999999997
aF-0.00035320399999999997
aF0.0
aF-0.0027748899999999999
aF0.0
aF-2.2057900000000001e-05
aF0.0
aF-0.0036650200000000002
aF-0.0025133400000000002
aF-0.00127797
aF-0.0033535100000000001
aF-0.00256646
aF-0.0033919699999999998
aF-0.0013123200000000001
aF1.0
aF1.0
aF1.0
aF1.0
aF1.0
aF1.0
aF1.0
aF1.0
aF1.0
aF-8.5833899999999998e-05
aF0.0
aF-0.017334100000000002
aF-0.0122411
aF-0.0134793
aF-5.3553600000000002e-05
aF0.0
aF-0.010075499999999999
aF-4.8251799999999998e-05
aF0.0
aF-6.4723300000000004e-05
aF0.0
aF-0.000234828
aF0.0
aF-0.031285599999999997
aF-0.00012817800000000001
aF0.0
aF-0.00074294499999999996
aF0.0
aF-6.4494200000000002e-06
aF0.0
aF-0.0027917300000000001
aF-0.0019061499999999999
aF-0.00194947
aF1.0
aF1.0
aF1.0
aF1.0
aF1.0
aF-6.8607600000000004e-05
aF0.0
aF-0.014995
aF-3.2061399999999998e-05
aF0.0
aF-0.00022513899999999999
aF0.0
aF6.75159e-06
aF0.0
aF-0.00179239
aF1.0
aF1.0
aF1.0
aF-5.7897599999999999e-05
aF0.0
aF1.3143600000000001e-05
aF0.0
aF1.0
aF1.0
aF3.8260699999999998e-08
aF0.0
aF1.0
aF1.0
aF-1.6911000000000001e-05
aF0.0
aF-0.00345357
aF1.0
aF1.0
aF1.0
aF-7.86498e-05
aF0.0
aF-1.2228e-05
aF0.0
aF1.0
aF1.0
aF-2.0232199999999999e-05
aF0.0
aF1.0
aF1.0
aF-1.5987399999999999e-05
aF0.0
aF-0.00298482
aF-0.0020274400000000001
aF-0.0020909499999999998
aF1.0
aF1.0
aF1.0
aF1.0
aF1.0
aF-8.7703700000000005e-05
aF0.0
aF-0.018399100000000002
aF-5.3460500000000001e-05
aF0.0
aF-0.000235386
aF0.0
aF-2.1330100000000001e-05
aF0.0
aF-0.0034619099999999999
aF1.0
aF1.0
aF1.0
aF-8.8914999999999998e-05
aF0.0
aF-2.2385300000000001e-05
aF0.0
aF1.0
aF1.0
aF-1.91044e-05
aF0.0
aF1.0
aF1.0
aF-8.3434799999999993e-06
aF0.0
aF-0.0024128600000000002
aF1.0
aF1.0
aF1.0
aF-8.2955700000000003e-05
aF0.0
aF-1.2293899999999999e-05
aF0.0
aF1.0
aF1.0
aF-4.4332899999999997e-06
aF0.0
aF1.0
aF1.0
aF6.0918699999999997e-06
aF0.0
aF-0.00164174
aF-0.0010608
aF-0.00048472100000000002
aF-0.00146995
aF-0.0011502299999999999
aF-0.00153513
aF-0.00054134099999999998
aF1.0
aF1.0
aF1.0
aF1.0
aF1.0
aF1.0
aF1.0
aF1.0
aF1.0
aF-5.87043e-05
aF0.0
aF-0.018557299999999999
aF-0.0126207
aF-0.014992
aF-2.50367e-05
aF0.0
aF-0.0095385899999999996
aF-1.89778e-05
aF0.0
aF-3.7181500000000003e-05
aF0.0
aF-0.00019607000000000001
aF0.0
aF-0.035767500000000001
aF-9.9080199999999994e-05
aF0.0
aF-0.00067261199999999995
aF0.0
aF7.6992900000000003e-06
aF0.0
aF-0.0014147299999999999
aF-0.00090781900000000003
aF-0.00098907399999999994
aF1.0
aF1.0
aF1.0
aF1.0
aF1.0
aF-6.2926200000000001e-05
aF0.0
aF-0.018096500000000001
aF-2.6845299999999999e-05
aF0.0
aF-0.00020566099999999999
aF0.0
aF4.8061200000000002e-06
aF0.0
aF-0.00155857
aF1.0
aF1.0
aF1.0
aF-6.8887199999999993e-05
aF0.0
aF2.3071100000000002e-06
aF0.0
aF1.0
aF1.0
aF6.60829e-06
aF0.0
aF1.0
aF1.0
aF7.9171099999999998e-06
aF0.0
aF-0.0014578099999999999
aF1.0
aF1.0
aF1.0
aF-5.9375400000000001e-05
aF0.0
aF8.1123700000000001e-06
aF0.0
aF1.0
aF1.0
aF7.2076500000000004e-06
aF0.0
aF1.0
aF1.0
aF-2.57741e-07
aF0.0
aF-0.0021940100000000001
aF-0.0014419599999999999
aF-0.0015406300000000001
aF1.0
aF1.0
aF1.0
aF1.0
aF1.0
aF-6.44524e-05
aF0.0
aF-0.019788799999999999
aF-3.1557999999999998e-05
aF0.0
aF-0.00019832300000000001
aF0.0
aF3.08779e-06
aF0.0
aF-0.00190712
aF1.0
aF1.0
aF1.0
aF-6.0668999999999998e-05
aF0.0
aF4.6820600000000002e-06
aF0.0
aF1.0
aF1.0
aF1.4108699999999999e-06
aF0.0
aF1.0
aF1.0
aF-3.2683900000000001e-06
aF0.0
aF-0.0024492799999999999
aF1.0
aF1.0
aF1.0
aF-6.8919599999999997e-05
aF0.0
aF-1.83944e-06
aF0.0
aF1.0
aF1.0
aF-4.4912700000000001e-06
aF0.0
aF1.0
aF1.0
aF-1.8088200000000001e-06
aF0.0
aF-0.0023646000000000001
aF-0.0014970000000000001
aF-0.00067965099999999997
aF-0.00023168
aF-5.2969200000000001e-05
aF-0.00045437
aF-0.0011087600000000001
aF-0.00089846900000000005
aF-0.0013088799999999999
aF-0.00209384
aF-0.00183004
aF-0.00167132
aF-0.0019714300000000001
aF-0.0022756500000000002
aF-0.00219572
aF-0.0023323200000000001
aF-0.0016869299999999999
aF-0.00223449
aF-0.0023524399999999999
aF-0.0023715400000000001
aF-0.0023068099999999999
aF-0.00201075
aF-0.0021356399999999998
aF-0.00186075
aF-0.00079357799999999997
aF-0.0012751500000000001
aF-0.00149102
aF-0.00104178
aF-0.00027557100000000001
aF-0.000534181
aF-6.5278700000000002e-05
aF1.0
aF1.0
aF1.0
aF1.0
aF1.0
aF1.0
aF1.0
aF1.0
aF1.0
aF1.0
aF1.0
aF1.0
aF1.0
aF1.0
aF1.0
aF1.0
aF1.0
aF1.0
aF1.0
aF1.0
aF1.0
aF1.0
aF1.0
aF1.0
aF1.0
aF1.0
aF1.0
aF1.0
aF1.0
aF1.0
aF1.0
aF1.0
aF1.0
aF-6.6849999999999999e-05
aF0.0
aF-0.025674300000000001
aF-0.016037900000000001
aF-0.0076424099999999997
aF-0.0029357599999999999
aF-0.012090800000000001
aF-0.022137
aF-0.0193989
aF-0.024236500000000001
aF-0.022442
aF-0.0262557
aF-0.026390400000000001
aF-0.0250452
aF-0.012019
aF-0.018129800000000001
aF-0.0047121000000000003
aF-3.78167e-05
aF0.0
aF-0.013834300000000001
aF-0.0088838600000000004
aF-0.0041812400000000001
aF-0.012277100000000001
aF-0.010125
aF-0.0131764
aF-0.0049461899999999996
aF-3.2548900000000003e-05
aF0.0
aF-0.011410999999999999
aF-0.0074429500000000003
aF-0.00807334
aF-2.8980200000000001e-05
aF0.0
aF-0.0100743
aF-1.78345e-05
aF0.0
aF-3.1770599999999997e-05
aF0.0
aF-3.4542000000000002e-05
aF0.0
aF-0.0123781
aF-3.3382700000000001e-05
aF0.0
aF-3.6020399999999998e-05
aF0.0
aF-4.85342e-05
aF0.0
aF-0.018445799999999998
aF-0.0116253
aF-0.0144028
aF-4.2419000000000002e-05
aF0.0
aF-0.015838700000000001
aF-3.9943e-05
aF0.0
aF-4.5271200000000001e-05
aF0.0
aF-5.6487499999999997e-05
aF0.0
aF-0.021710900000000002
aF-5.2253200000000003e-05
aF0.0
aF-6.1316999999999996e-05
aF0.0
aF-0.00018313699999999999
aF0.0
aF-0.047372900000000003
aF-0.033597399999999999
aF-0.018651299999999999
aF-0.041905199999999997
aF-0.063842099999999999
aF-0.053226799999999998
aF-0.066642199999999999
aF-0.000100177
aF0.0
aF-0.035632700000000003
aF-0.022849000000000001
aF-0.037618699999999998
aF-8.0690699999999996e-05
aF0.0
aF-0.0303374
aF-7.3237000000000004e-05
aF0.0
aF-8.9518700000000001e-05
aF0.0
aF-0.000130168
aF0.0
aF-0.041396599999999999
aF-0.000113361
aF0.0
aF-0.00015239499999999999
aF0.0
aF-0.00064884700000000003
aF0.0
aF-0.055443600000000003
aF-0.049735700000000001
aF-0.070329000000000003
aF-0.000298249
aF0.0
aF-0.053251699999999999
aF-0.00022804300000000001
aF0.0
aF-0.00041807299999999998
aF0.0
aF-0.0028325300000000002
aF0.0
aF0.072228399999999998
aF-0.00118117
aF0.0
aF-0.011173000000000001
aF0.0
aF4.03468e-06
aF0.0
aF-0.00186476
aF-0.00117369
aF-0.00052112100000000004
aF-0.00016178500000000001
aF-0.00086362099999999996
aF-0.0016498800000000001
aF-0.0014395499999999999
aF-0.00179447
aF-0.00132281
aF-0.0017596300000000001
aF-0.00185432
aF-0.0015808899999999999
aF-0.00061251399999999998
aF-0.00099516199999999996
aF-0.000198388
aF1.0
aF1.0
aF1.0
aF1.0
aF1.0
aF1.0
aF1.0
aF1.0
aF1.0
aF1.0
aF1.0
aF1.0
aF1.0
aF1.0
aF1.0
aF1.0
aF1.0
aF-6.1350400000000001e-05
aF0.0
aF-0.0229444
aF-0.0147867
aF-0.0071711199999999996
aF-0.0201069
aF-0.019390999999999999
aF-0.023057399999999999
aF-0.0103953
aF-3.0316900000000001e-05
aF0.0
aF-0.012047499999999999
aF-0.0078386099999999993
aF-0.0087437499999999998
aF-2.4654599999999999e-05
aF0.0
aF-0.0098201699999999996
aF-2.1950299999999999e-05
aF0.0
aF-2.68272e-05
aF0.0
aF-4.1715699999999998e-05
aF0.0
aF-0.016282600000000001
aF-3.5204899999999999e-05
aF0.0
aF-5.0221099999999999e-05
aF0.0
aF-0.00018382000000000001
aF0.0
aF-0.043439100000000001
aF-0.032554100000000002
aF-0.0541617
aF-9.7123300000000006e-05
aF0.0
aF-0.032238599999999999
aF-7.6240499999999996e-05
aF0.0
aF-0.00012887700000000001
aF0.0
aF-0.00064850699999999999
aF0.0
aF-0.052807199999999999
aF-0.000300377
aF0.0
aF-0.0027930799999999999
aF0.0
aF-3.2421299999999998e-06
aF0.0
aF-0.0023784399999999999
aF-0.0015486
aF-0.00072791999999999996
aF-0.0021322300000000001
aF-0.00167808
aF-0.0022272699999999999
aF-0.00080804300000000004
aF1.0
aF1.0
aF1.0
aF1.0
aF1.0
aF1.0
aF1.0
aF1.0
aF1.0
aF-7.2401200000000001e-05
aF0.0
aF-0.022552200000000001
aF-0.014833600000000001
aF-0.0186272
aF-4.0213999999999998e-05
aF0.0
aF-0.012210800000000001
aF-3.4359100000000001e-05
aF0.0
aF-5.1992600000000001e-05
aF0.0
aF-0.00019923599999999999
aF0.0
aF-0.042150800000000002
aF-0.000109719
aF0.0
aF-0.00066542000000000001
aF0.0
aF-6.4758400000000002e-06
aF0.0
aF-0.0026866699999999999
aF-0.00177275
aF-0.00189164
aF1.0
aF1.0
aF1.0
aF1.0
aF1.0
aF-7.6235400000000005e-05
aF0.0
aF-0.0221803
aF-4.2979199999999997e-05
aF0.0
aF-0.00020597000000000001
aF0.0
aF-6.5689800000000004e-06
aF0.0
aF-0.0027130000000000001
aF1.0
aF1.0
aF1.0
aF-7.5516899999999995e-05
aF0.0
aF-6.1654500000000004e-06
aF0.0
aF1.0
aF1.0
aF-6.6707600000000003e-06
aF0.0
aF1.0
aF1.0
aF-5.2755599999999997e-06
aF0.0
aF-0.0025646200000000001
aF1.0
aF1.0
aF1.0
aF-7.5057100000000003e-05
aF0.0
aF-6.0011699999999998e-06
aF0.0
aF1.0
aF1.0
aF-4.3391300000000001e-06
aF0.0
aF1.0
aF1.0
aF1.5193499999999999e-06
aF0.0
aF-0.0019955400000000001
aF-0.00127243
aF-0.00141205
aF1.0
aF1.0
aF1.0
aF1.0
aF1.0
aF-6.5563999999999998e-05
aF0.0
aF-0.022655999999999999
aF-3.42753e-05
aF0.0
aF-0.00018982800000000001
aF0.0
aF-8.0590900000000002e-07
aF0.0
aF-0.0021728300000000002
aF1.0
aF1.0
aF1.0
aF-6.8971600000000002e-05
aF0.0
aF-2.0430499999999999e-06
aF0.0
aF1.0
aF1.0
aF4.0309700000000003e-07
aF0.0
aF1.0
aF1.0
aF3.2466700000000002e-06
aF0.0
aF-0.00188584
aF1.0
aF1.0
aF1.0
aF-6.2873700000000001e-05
aF0.0
aF2.4837800000000001e-06
aF0.0
aF1.0
aF1.0
aF3.7709499999999999e-06
aF0.0
aF1.0
aF1.0
aF-7.9433899999999998e-07
aF0.0
aF-0.0023560199999999999
aF-0.00150508
aF-0.00069026999999999999
aF-0.0020948099999999999
aF-0.00167366
aF-0.0022192800000000001
aF-0.00079249500000000005
aF1.0
aF1.0
aF1.0
aF1.0
aF1.0
aF1.0
aF1.0
aF1.0
aF1.0
aF-6.5432900000000002e-05
aF0.0
aF-0.024457199999999998
aF-0.0155186
aF-0.0209938
aF-3.5138999999999997e-05
aF0.0
aF-0.013053800000000001
aF-2.95669e-05
aF0.0
aF-4.6331500000000002e-05
aF0.0
aF-0.000184699
aF0.0
aF-0.045658700000000003
aF-0.00010003199999999999
aF0.0
aF-0.00064950100000000003
aF0.0
aF2.6236499999999999e-06
aF0.0
aF-0.0020593899999999999
aF-0.0013036
aF-0.00146218
aF1.0
aF1.0
aF1.0
aF1.0
aF1.0
aF-6.2022700000000005e-05
aF0.0
aF-0.023601400000000002
aF-3.1164899999999997e-05
aF0.0
aF-0.000182969
aF0.0
aF3.77608e-06
aF0.0
aF-0.0019303600000000001
aF1.0
aF1.0
aF1.0
aF-6.1125900000000004e-05
aF0.0
aF4.03255e-06
aF0.0
aF1.0
aF1.0
aF3.2927100000000001e-06
aF0.0
aF1.0
aF1.0
aF9.4289700000000003e-07
aF0.0
aF-0.0022147099999999999
aF1.0
aF1.0
aF1.0
aF-6.3631800000000003e-05
aF0.0
aF1.8208e-06
aF0.0
aF1.0
aF1.0
aF5.1293799999999998e-08
aF0.0
aF1.0
aF1.0
aF-2.7903499999999999e-06
aF0.0
aF-0.0024807399999999999
aF-0.00158567
aF-0.00176483
aF1.0
aF1.0
aF1.0
aF1.0
aF1.0
aF-6.7737599999999993e-05
aF0.0
aF-0.025204000000000001
aF-3.8177599999999998e-05
aF0.0
aF-0.00018534899999999999
aF0.0
aF-2.1410299999999999e-06
aF0.0
aF-0.00245057
aF1.0
aF1.0
aF1.0
aF-6.6925e-05
aF0.0
aF-1.54005e-06
aF0.0
aF1.0
aF1.0
aF-2.56431e-06
aF0.0
aF1.0
aF1.0
aF-2.6425699999999999e-06
aF0.0
aF-0.00244678
aF1.0
aF1.0
aF1.0
aF-6.7698800000000003e-05
aF0.0
aF-2.8136999999999998e-06
aF0.0
aF1.0
aF1.0
aF-2.2973999999999998e-06
aF0.0
aF1.0
aF1.0
aF8.3018299999999996e-07
aF0.0
aF-0.0022397900000000002
aF-0.00138254
aF-0.00060656000000000002
aF-0.000189471
aF-0.00101256
aF-0.0019616999999999998
aF-0.0017034400000000001
aF-0.0021443899999999999
aF-0.0016131400000000001
aF-0.0021334700000000002
aF-0.00223828
aF-0.0019236500000000001
aF-0.00074213899999999995
aF-0.00121328
aF-0.00024004399999999999
aF1.0
aF1.0
aF1.0
aF1.0
aF1.0
aF1.0
aF1.0
aF1.0
aF1.0
aF1.0
aF1.0
aF1.0
aF1.0
aF1.0
aF1.0
aF1.0
aF1.0
aF-6.1065300000000006e-05
aF0.0
aF-0.027200100000000001
aF-0.0164295
aF-0.0076766400000000002
aF-0.023023999999999999
aF-0.024866699999999999
aF-0.028453800000000001
aF-0.0132946
aF-3.3615100000000003e-05
aF0.0
aF-0.0145592
aF-0.0091724000000000007
aF-0.0107831
aF-2.86059e-05
aF0.0
aF-0.0119478
aF-2.4097999999999999e-05
aF0.0
aF-3.0497700000000001e-05
aF0.0
aF-4.3801100000000003e-05
aF0.0
aF-0.0195041
aF-3.79991e-05
aF0.0
aF-5.1311499999999998e-05
aF0.0
aF-0.000173351
aF0.0
aF-0.049364199999999997
aF-0.033570500000000003
aF-0.073637300000000003
aF-9.2583400000000005e-05
aF0.0
aF-0.037587099999999998
aF-7.4101499999999995e-05
aF0.0
aF-0.000121432
aF0.0
aF-0.00064190299999999998
aF0.0
aF-0.054852100000000001
aF-0.00028817699999999998
aF0.0
aF-0.0028564800000000002
aF0.0
aF2.5147700000000001e-06
aF0.0
aF-0.0020549499999999998
aF-0.0012658299999999999
aF-0.00055033199999999995
aF-0.00179956
aF-0.0014762499999999999
aF-0.0019558499999999999
aF-0.00067530699999999999
aF1.0
aF1.0
aF1.0
aF1.0
aF1.0
aF1.0
aF1.0
aF1.0
aF1.0
aF-6.0866399999999997e-05
aF0.0
aF-0.02622
aF-0.016081999999999999
aF-0.0234738
aF-3.2494699999999999e-05
aF0.0
aF-0.0139521
aF-2.7311600000000001e-05
aF0.0
aF-4.3012300000000002e-05
aF0.0
aF-0.000175117
aF0.0
aF-0.0482543
aF-9.3315900000000006e-05
aF0.0
aF-0.00064218000000000001
aF0.0
aF7.7225900000000003e-07
aF0.0
aF-0.0021596599999999999
aF-0.0013460900000000001
aF-0.0015464599999999999
aF1.0
aF1.0
aF1.0
aF1.0
aF1.0
aF-6.3712400000000003e-05
aF0.0
aF-0.0259443
aF-3.49985e-05
aF0.0
aF-0.00017895699999999999
aF0.0
aF-5.5784400000000003e-07
aF0.0
aF-0.0022597099999999998
aF1.0
aF1.0
aF1.0
aF-6.5411800000000003e-05
aF0.0
aF-1.21484e-06
aF0.0
aF1.0
aF1.0
aF1.18501e-07
aF0.0
aF1.0
aF1.0
aF1.86808e-06
aF0.0
aF-0.0020870699999999999
aF1.0
aF1.0
aF1.0
aF-6.21009e-05
aF0.0
aF1.3658300000000001e-06
aF0.0
aF1.0
aF1.0
aF2.2558300000000001e-06
aF0.0
aF1.0
aF1.0
aF2.2804799999999999e-06
aF0.0
aF-0.0021094500000000001
aF-0.00129755
aF-0.00151794
aF1.0
aF1.0
aF1.0
aF1.0
aF1.0
aF-6.0068400000000002e-05
aF0.0
aF-0.026644899999999999
aF-3.2149400000000001e-05
aF0.0
aF-0.000173299
aF0.0
aF2.63369e-06
aF0.0
aF-0.0020651100000000002
aF1.0
aF1.0
aF1.0
aF-6.0179500000000002e-05
aF0.0
aF2.6396000000000001e-06
aF0.0
aF1.0
aF1.0
aF2.5081499999999999e-06
aF0.0
aF1.0
aF1.0
aF1.6110999999999999e-06
aF0.0
aF-0.0021733099999999999
aF1.0
aF1.0
aF1.0
aF-6.0429200000000001e-05
aF0.0
aF1.973e-06
aF0.0
aF1.0
aF1.0
aF1.22142e-06
aF0.0
aF1.0
aF1.0
aF-2.8896600000000002e-07
aF0.0
aF-0.0023106699999999999
aF-0.00141894
aF-0.00062039699999999996
aF-0.0020183800000000002
aF-0.0016706100000000001
aF-0.0022064099999999998
aF-0.00076682400000000004
aF1.0
aF1.0
aF1.0
aF1.0
aF1.0
aF1.0
aF1.0
aF1.0
aF1.0
aF-6.2228499999999996e-05
aF0.0
aF-0.028205899999999999
aF-0.016794099999999999
aF-0.0263334
aF-3.55516e-05
aF0.0
aF-0.015212
aF-3.0691700000000003e-05
aF0.0
aF-4.5459600000000001e-05
aF0.0
aF-0.000172996
aF0.0
aF-0.050333099999999999
aF-9.2980900000000003e-05
aF0.0
aF-0.00064322999999999995
aF0.0
aF-3.18007e-07
aF0.0
aF-0.0023251700000000001
aF-0.00143585
aF-0.0016769199999999999
aF1.0
aF1.0
aF1.0
aF1.0
aF1.0
aF-6.2245500000000006e-05
aF0.0
aF-0.0277571
aF-3.5201899999999999e-05
aF0.0
aF-0.00017372500000000001
aF0.0
aF1.3701300000000001e-07
aF0.0
aF-0.0022938199999999998
aF1.0
aF1.0
aF1.0
aF-6.1742200000000007e-05
aF0.0
aF4.6168700000000002e-07
aF0.0
aF1.0
aF1.0
aF-1.26921e-07
aF0.0
aF1.0
aF1.0
aF-4.5880499999999998e-07
aF0.0
aF-0.0023299599999999998
aF1.0
aF1.0
aF1.0
aF-6.2426499999999996e-05
aF0.0
aF-4.2925699999999999e-07
aF0.0
aF1.0
aF1.0
aF-4.0961799999999998e-07
aF0.0
aF1.0
aF1.0
aF6.5595000000000005e-07
aF0.0
aF-0.00223223
aF-0.0013571499999999999
aF-0.0016193399999999999
aF1.0
aF1.0
aF1.0
aF1.0
aF1.0
aF-6.0916699999999999e-05
aF0.0
aF-0.0285399
aF-3.4606500000000001e-05
aF0.0
aF-0.00017100500000000001
aF0.0
aF1.20573e-07
aF0.0
aF-0.0022747000000000002
aF1.0
aF1.0
aF1.0
aF-6.1688199999999997e-05
aF0.0
aF-1.07709e-07
aF0.0
aF1.0
aF1.0
aF3.8051699999999999e-07
aF0.0
aF1.0
aF1.0
aF1.19016e-06
aF0.0
aF-0.0021936299999999998
aF1.0
aF1.0
aF1.0
aF-6.0065700000000003e-05
aF0.0
aF9.3083899999999996e-07
aF0.0
aF1.0
aF1.0
aF1.4206899999999999e-06
aF0.0
aF1.0
aF1.0
a.